Archive member included to satisfy reference by file (symbol)

c:/nxp/mcuxpressoide_11.2.0_4120/ide/plugins/com.nxp.mcuxpresso.tools.win32_11.2.0.202001021529/tools/bin/../lib/gcc/arm-none-eabi/9.2.1/thumb/v7e-m+dp/hard\libgcc.a(_aeabi_ldivmod.o)
                              ./source/drivers/ocotp/bl_ocotp.o (__aeabi_ldivmod)
c:/nxp/mcuxpressoide_11.2.0_4120/ide/plugins/com.nxp.mcuxpresso.tools.win32_11.2.0.202001021529/tools/bin/../lib/gcc/arm-none-eabi/9.2.1/thumb/v7e-m+dp/hard\libgcc.a(_aeabi_uldivmod.o)
                              ./source/drivers/ocotp/bl_ocotp.o (__aeabi_uldivmod)
c:/nxp/mcuxpressoide_11.2.0_4120/ide/plugins/com.nxp.mcuxpresso.tools.win32_11.2.0.202001021529/tools/bin/../lib/gcc/arm-none-eabi/9.2.1/thumb/v7e-m+dp/hard\libgcc.a(_udivmoddi4.o)
                              c:/nxp/mcuxpressoide_11.2.0_4120/ide/plugins/com.nxp.mcuxpresso.tools.win32_11.2.0.202001021529/tools/bin/../lib/gcc/arm-none-eabi/9.2.1/thumb/v7e-m+dp/hard\libgcc.a(_aeabi_ldivmod.o) (__udivmoddi4)
c:/nxp/mcuxpressoide_11.2.0_4120/ide/plugins/com.nxp.mcuxpresso.tools.win32_11.2.0.202001021529/tools/bin/../lib/gcc/arm-none-eabi/9.2.1/thumb/v7e-m+dp/hard\libgcc.a(_dvmd_tls.o)
                              c:/nxp/mcuxpressoide_11.2.0_4120/ide/plugins/com.nxp.mcuxpresso.tools.win32_11.2.0.202001021529/tools/bin/../lib/gcc/arm-none-eabi/9.2.1/thumb/v7e-m+dp/hard\libgcc.a(_aeabi_ldivmod.o) (__aeabi_ldiv0)
c:/nxp/mcuxpressoide_11.2.0_4120/ide/plugins/com.nxp.mcuxpresso.tools.win32_11.2.0.202001021529/tools/bin/../lib/gcc/arm-none-eabi/9.2.1/../../../../arm-none-eabi/lib/thumb/v7e-m+dp/hard\libc_nano.a(lib_a-malloc.o)
                              ./drivers/fsl_common.o (malloc)
c:/nxp/mcuxpressoide_11.2.0_4120/ide/plugins/com.nxp.mcuxpresso.tools.win32_11.2.0.202001021529/tools/bin/../lib/gcc/arm-none-eabi/9.2.1/../../../../arm-none-eabi/lib/thumb/v7e-m+dp/hard\libc_nano.a(lib_a-memcmp.o)
                              ./source/sbloader/src/sbloader.o (memcmp)
c:/nxp/mcuxpressoide_11.2.0_4120/ide/plugins/com.nxp.mcuxpresso.tools.win32_11.2.0.202001021529/tools/bin/../lib/gcc/arm-none-eabi/9.2.1/../../../../arm-none-eabi/lib/thumb/v7e-m+dp/hard\libc_nano.a(lib_a-memcpy-stub.o)
                              ./source/property/src/property_imx.o (memcpy)
c:/nxp/mcuxpressoide_11.2.0_4120/ide/plugins/com.nxp.mcuxpresso.tools.win32_11.2.0.202001021529/tools/bin/../lib/gcc/arm-none-eabi/9.2.1/../../../../arm-none-eabi/lib/thumb/v7e-m+dp/hard\libc_nano.a(lib_a-memset.o)
                              ./source/sbloader/src/sbloader.o (memset)
c:/nxp/mcuxpressoide_11.2.0_4120/ide/plugins/com.nxp.mcuxpresso.tools.win32_11.2.0.202001021529/tools/bin/../lib/gcc/arm-none-eabi/9.2.1/../../../../arm-none-eabi/lib/thumb/v7e-m+dp/hard\libc_nano.a(lib_a-nano-freer.o)
                              c:/nxp/mcuxpressoide_11.2.0_4120/ide/plugins/com.nxp.mcuxpresso.tools.win32_11.2.0.202001021529/tools/bin/../lib/gcc/arm-none-eabi/9.2.1/../../../../arm-none-eabi/lib/thumb/v7e-m+dp/hard\libc_nano.a(lib_a-malloc.o) (_free_r)
c:/nxp/mcuxpressoide_11.2.0_4120/ide/plugins/com.nxp.mcuxpresso.tools.win32_11.2.0.202001021529/tools/bin/../lib/gcc/arm-none-eabi/9.2.1/../../../../arm-none-eabi/lib/thumb/v7e-m+dp/hard\libc_nano.a(lib_a-nano-mallocr.o)
                              c:/nxp/mcuxpressoide_11.2.0_4120/ide/plugins/com.nxp.mcuxpresso.tools.win32_11.2.0.202001021529/tools/bin/../lib/gcc/arm-none-eabi/9.2.1/../../../../arm-none-eabi/lib/thumb/v7e-m+dp/hard\libc_nano.a(lib_a-malloc.o) (_malloc_r)
c:/nxp/mcuxpressoide_11.2.0_4120/ide/plugins/com.nxp.mcuxpresso.tools.win32_11.2.0.202001021529/tools/bin/../lib/gcc/arm-none-eabi/9.2.1/../../../../arm-none-eabi/lib/thumb/v7e-m+dp/hard\libc_nano.a(lib_a-sbrkr.o)
                              c:/nxp/mcuxpressoide_11.2.0_4120/ide/plugins/com.nxp.mcuxpresso.tools.win32_11.2.0.202001021529/tools/bin/../lib/gcc/arm-none-eabi/9.2.1/../../../../arm-none-eabi/lib/thumb/v7e-m+dp/hard\libc_nano.a(lib_a-nano-mallocr.o) (_sbrk_r)
c:/nxp/mcuxpressoide_11.2.0_4120/ide/plugins/com.nxp.mcuxpresso.tools.win32_11.2.0.202001021529/tools/bin/../lib/gcc/arm-none-eabi/9.2.1/../../../../arm-none-eabi/lib/thumb/v7e-m+dp/hard\libc_nano.a(lib_a-impure.o)
                              c:/nxp/mcuxpressoide_11.2.0_4120/ide/plugins/com.nxp.mcuxpresso.tools.win32_11.2.0.202001021529/tools/bin/../lib/gcc/arm-none-eabi/9.2.1/../../../../arm-none-eabi/lib/thumb/v7e-m+dp/hard\libc_nano.a(lib_a-malloc.o) (_impure_ptr)
c:/nxp/mcuxpressoide_11.2.0_4120/ide/plugins/com.nxp.mcuxpresso.tools.win32_11.2.0.202001021529/tools/bin/../lib/gcc/arm-none-eabi/9.2.1/../../../../arm-none-eabi/lib/thumb/v7e-m+dp/hard\libc_nano.a(lib_a-mlock.o)
                              c:/nxp/mcuxpressoide_11.2.0_4120/ide/plugins/com.nxp.mcuxpresso.tools.win32_11.2.0.202001021529/tools/bin/../lib/gcc/arm-none-eabi/9.2.1/../../../../arm-none-eabi/lib/thumb/v7e-m+dp/hard\libc_nano.a(lib_a-nano-freer.o) (__malloc_lock)
c:/nxp/mcuxpressoide_11.2.0_4120/ide/plugins/com.nxp.mcuxpresso.tools.win32_11.2.0.202001021529/tools/bin/../lib/gcc/arm-none-eabi/9.2.1/../../../../arm-none-eabi/lib/thumb/v7e-m+dp/hard\libc_nano.a(lib_a-reent.o)
                              c:/nxp/mcuxpressoide_11.2.0_4120/ide/plugins/com.nxp.mcuxpresso.tools.win32_11.2.0.202001021529/tools/bin/../lib/gcc/arm-none-eabi/9.2.1/../../../../arm-none-eabi/lib/thumb/v7e-m+dp/hard\libc_nano.a(lib_a-sbrkr.o) (errno)
c:/nxp/mcuxpressoide_11.2.0_4120/ide/plugins/com.nxp.mcuxpresso.tools.win32_11.2.0.202001021529/tools/bin/../lib/gcc/arm-none-eabi/9.2.1/../../../../arm-none-eabi/lib/thumb/v7e-m+dp/hard\libc_nano.a(lib_a-lock.o)
                              c:/nxp/mcuxpressoide_11.2.0_4120/ide/plugins/com.nxp.mcuxpresso.tools.win32_11.2.0.202001021529/tools/bin/../lib/gcc/arm-none-eabi/9.2.1/../../../../arm-none-eabi/lib/thumb/v7e-m+dp/hard\libc_nano.a(lib_a-mlock.o) (__retarget_lock_acquire_recursive)
c:/nxp/mcuxpressoide_11.2.0_4120/ide/plugins/com.nxp.mcuxpresso.tools.win32_11.2.0.202001021529/tools/bin/../lib/gcc/arm-none-eabi/9.2.1/../../../../arm-none-eabi/lib/thumb/v7e-m+dp/hard\libcr_newlib_none.a(_cr_sbrk.o)
                              c:/nxp/mcuxpressoide_11.2.0_4120/ide/plugins/com.nxp.mcuxpresso.tools.win32_11.2.0.202001021529/tools/bin/../lib/gcc/arm-none-eabi/9.2.1/../../../../arm-none-eabi/lib/thumb/v7e-m+dp/hard\libc_nano.a(lib_a-sbrkr.o) (_sbrk)
c:/nxp/mcuxpressoide_11.2.0_4120/ide/plugins/com.nxp.mcuxpresso.tools.win32_11.2.0.202001021529/tools/bin/../lib/gcc/arm-none-eabi/9.2.1/../../../../arm-none-eabi/lib/thumb/v7e-m+dp/hard\libcr_newlib_none.a(_cr_check_heap.o)
                              c:/nxp/mcuxpressoide_11.2.0_4120/ide/plugins/com.nxp.mcuxpresso.tools.win32_11.2.0.202001021529/tools/bin/../lib/gcc/arm-none-eabi/9.2.1/../../../../arm-none-eabi/lib/thumb/v7e-m+dp/hard\libcr_newlib_none.a(_cr_sbrk.o) (__check_heap_overflow)
c:/nxp/mcuxpressoide_11.2.0_4120/ide/plugins/com.nxp.mcuxpresso.tools.win32_11.2.0.202001021529/tools/bin/../lib/gcc/arm-none-eabi/9.2.1/../../../../arm-none-eabi/lib/thumb/v7e-m+dp/hard\libc_nano.a(lib_a-errno.o)
                              c:/nxp/mcuxpressoide_11.2.0_4120/ide/plugins/com.nxp.mcuxpresso.tools.win32_11.2.0.202001021529/tools/bin/../lib/gcc/arm-none-eabi/9.2.1/../../../../arm-none-eabi/lib/thumb/v7e-m+dp/hard\libcr_newlib_none.a(_cr_sbrk.o) (__errno)

Allocating common symbols
Common symbol       size              file

__lock___atexit_recursive_mutex
                    0x1               c:/nxp/mcuxpressoide_11.2.0_4120/ide/plugins/com.nxp.mcuxpresso.tools.win32_11.2.0.202001021529/tools/bin/../lib/gcc/arm-none-eabi/9.2.1/../../../../arm-none-eabi/lib/thumb/v7e-m+dp/hard\libc_nano.a(lib_a-lock.o)
__lock___arc4random_mutex
                    0x1               c:/nxp/mcuxpressoide_11.2.0_4120/ide/plugins/com.nxp.mcuxpresso.tools.win32_11.2.0.202001021529/tools/bin/../lib/gcc/arm-none-eabi/9.2.1/../../../../arm-none-eabi/lib/thumb/v7e-m+dp/hard\libc_nano.a(lib_a-lock.o)
errno               0x4               c:/nxp/mcuxpressoide_11.2.0_4120/ide/plugins/com.nxp.mcuxpresso.tools.win32_11.2.0.202001021529/tools/bin/../lib/gcc/arm-none-eabi/9.2.1/../../../../arm-none-eabi/lib/thumb/v7e-m+dp/hard\libc_nano.a(lib_a-reent.o)
__lock___env_recursive_mutex
                    0x1               c:/nxp/mcuxpressoide_11.2.0_4120/ide/plugins/com.nxp.mcuxpresso.tools.win32_11.2.0.202001021529/tools/bin/../lib/gcc/arm-none-eabi/9.2.1/../../../../arm-none-eabi/lib/thumb/v7e-m+dp/hard\libc_nano.a(lib_a-lock.o)
__lock___sinit_recursive_mutex
                    0x1               c:/nxp/mcuxpressoide_11.2.0_4120/ide/plugins/com.nxp.mcuxpresso.tools.win32_11.2.0.202001021529/tools/bin/../lib/gcc/arm-none-eabi/9.2.1/../../../../arm-none-eabi/lib/thumb/v7e-m+dp/hard\libc_nano.a(lib_a-lock.o)
__lock___malloc_recursive_mutex
                    0x1               c:/nxp/mcuxpressoide_11.2.0_4120/ide/plugins/com.nxp.mcuxpresso.tools.win32_11.2.0.202001021529/tools/bin/../lib/gcc/arm-none-eabi/9.2.1/../../../../arm-none-eabi/lib/thumb/v7e-m+dp/hard\libc_nano.a(lib_a-lock.o)
__lock___at_quick_exit_mutex
                    0x1               c:/nxp/mcuxpressoide_11.2.0_4120/ide/plugins/com.nxp.mcuxpresso.tools.win32_11.2.0.202001021529/tools/bin/../lib/gcc/arm-none-eabi/9.2.1/../../../../arm-none-eabi/lib/thumb/v7e-m+dp/hard\libc_nano.a(lib_a-lock.o)
__lock___dd_hash_mutex
                    0x1               c:/nxp/mcuxpressoide_11.2.0_4120/ide/plugins/com.nxp.mcuxpresso.tools.win32_11.2.0.202001021529/tools/bin/../lib/gcc/arm-none-eabi/9.2.1/../../../../arm-none-eabi/lib/thumb/v7e-m+dp/hard\libc_nano.a(lib_a-lock.o)
__lock___tz_mutex   0x1               c:/nxp/mcuxpressoide_11.2.0_4120/ide/plugins/com.nxp.mcuxpresso.tools.win32_11.2.0.202001021529/tools/bin/../lib/gcc/arm-none-eabi/9.2.1/../../../../arm-none-eabi/lib/thumb/v7e-m+dp/hard\libc_nano.a(lib_a-lock.o)
__lock___sfp_recursive_mutex
                    0x1               c:/nxp/mcuxpressoide_11.2.0_4120/ide/plugins/com.nxp.mcuxpresso.tools.win32_11.2.0.202001021529/tools/bin/../lib/gcc/arm-none-eabi/9.2.1/../../../../arm-none-eabi/lib/thumb/v7e-m+dp/hard\libc_nano.a(lib_a-lock.o)

Discarded input sections

 .text          0x00000000        0x0 ./usb/phy/usb_phy.o
 .data          0x00000000        0x0 ./usb/phy/usb_phy.o
 .bss           0x00000000        0x0 ./usb/phy/usb_phy.o
 .text.USB_EhciPhyGetBase
                0x00000000       0x70 ./usb/phy/usb_phy.o
 .text.USB_EhciPhyInit
                0x00000000       0x88 ./usb/phy/usb_phy.o
 .text.USB_EhciLowPowerPhyInit
                0x00000000       0x64 ./usb/phy/usb_phy.o
 .text.USB_EhciPhyDeinit
                0x00000000       0x12 ./usb/phy/usb_phy.o
 .text.USB_EhcihostPhyDisconnectDetectCmd
                0x00000000       0x1c ./usb/phy/usb_phy.o
 .rodata        0x00000000        0xc ./usb/phy/usb_phy.o
 .debug_info    0x00000000     0x105d ./usb/phy/usb_phy.o
 .debug_abbrev  0x00000000      0x270 ./usb/phy/usb_phy.o
 .debug_loc     0x00000000      0x2e4 ./usb/phy/usb_phy.o
 .debug_aranges
                0x00000000       0x40 ./usb/phy/usb_phy.o
 .debug_ranges  0x00000000       0x30 ./usb/phy/usb_phy.o
 .debug_line    0x00000000      0x679 ./usb/phy/usb_phy.o
 .debug_str     0x00000000      0xce1 ./usb/phy/usb_phy.o
 .comment       0x00000000       0x7a ./usb/phy/usb_phy.o
 .debug_frame   0x00000000       0x9c ./usb/phy/usb_phy.o
 .ARM.attributes
                0x00000000       0x32 ./usb/phy/usb_phy.o
 .text          0x00000000        0x0 ./usb/device/source/ehci/usb_device_ehci.o
 .data          0x00000000        0x0 ./usb/device/source/ehci/usb_device_ehci.o
 .bss           0x00000000        0x0 ./usb/device/source/ehci/usb_device_ehci.o
 .text          0x00000000        0x0 ./usb/device/source/usb_device_ch9.o
 .data          0x00000000        0x0 ./usb/device/source/usb_device_ch9.o
 .bss           0x00000000        0x0 ./usb/device/source/usb_device_ch9.o
 .text          0x00000000        0x0 ./usb/device/source/usb_device_dci.o
 .data          0x00000000        0x0 ./usb/device/source/usb_device_dci.o
 .bss           0x00000000        0x0 ./usb/device/source/usb_device_dci.o
 .text.USB_DeviceStop
                0x00000000        0x8 ./usb/device/source/usb_device_dci.o
 .text.USB_DeviceCancel
                0x00000000       0x14 ./usb/device/source/usb_device_dci.o
 .text.USB_DeviceGetVersion
                0x00000000        0xc ./usb/device/source/usb_device_dci.o
 .text          0x00000000        0x0 ./usb/device/class/hid/usb_device_hid.o
 .data          0x00000000        0x0 ./usb/device/class/hid/usb_device_hid.o
 .bss           0x00000000        0x0 ./usb/device/class/hid/usb_device_hid.o
 .text          0x00000000        0x0 ./usb/device/class/usb_device_class.o
 .data          0x00000000        0x0 ./usb/device/class/usb_device_class.o
 .bss           0x00000000        0x0 ./usb/device/class/usb_device_class.o
 .data          0x00000000        0x0 ./startup/crt0_gcc.o
 .bss           0x00000000        0x0 ./startup/crt0_gcc.o
 .Reset_Handler
                0x00000000        0x0 ./startup/crt0_gcc.o
 .text          0x00000000        0x0 ./startup/startup.o
 .data          0x00000000        0x0 ./startup/startup.o
 .bss           0x00000000        0x0 ./startup/startup.o
 .data          0x00000000        0x0 ./startup/startup_MIMXRT1062.o
 .bss           0x00000000        0x0 ./startup/startup_MIMXRT1062.o
 .text          0x00000000        0x0 ./source/utilities/src/debug_util.o
 .data          0x00000000        0x0 ./source/utilities/src/debug_util.o
 .bss           0x00000000        0x0 ./source/utilities/src/debug_util.o
 .debug_info    0x00000000      0x96c ./source/utilities/src/debug_util.o
 .debug_abbrev  0x00000000      0x17a ./source/utilities/src/debug_util.o
 .debug_aranges
                0x00000000       0x18 ./source/utilities/src/debug_util.o
 .debug_line    0x00000000      0x2f5 ./source/utilities/src/debug_util.o
 .debug_str     0x00000000      0x662 ./source/utilities/src/debug_util.o
 .comment       0x00000000       0x7a ./source/utilities/src/debug_util.o
 .ARM.attributes
                0x00000000       0x37 ./source/utilities/src/debug_util.o
 .text          0x00000000        0x0 ./source/utilities/src/fsl_assert.o
 .data          0x00000000        0x0 ./source/utilities/src/fsl_assert.o
 .bss           0x00000000        0x0 ./source/utilities/src/fsl_assert.o
 .text.fsl_assert
                0x00000000        0x2 ./source/utilities/src/fsl_assert.o
 .debug_info    0x00000000       0x38 ./source/utilities/src/fsl_assert.o
 .debug_abbrev  0x00000000       0x2e ./source/utilities/src/fsl_assert.o
 .debug_aranges
                0x00000000       0x20 ./source/utilities/src/fsl_assert.o
 .debug_ranges  0x00000000       0x10 ./source/utilities/src/fsl_assert.o
 .debug_line    0x00000000       0x57 ./source/utilities/src/fsl_assert.o
 .debug_str     0x00000000      0x174 ./source/utilities/src/fsl_assert.o
 .comment       0x00000000       0x7a ./source/utilities/src/fsl_assert.o
 .debug_frame   0x00000000       0x20 ./source/utilities/src/fsl_assert.o
 .ARM.attributes
                0x00000000       0x32 ./source/utilities/src/fsl_assert.o
 .text          0x00000000        0x0 ./source/utilities/src/fsl_rtos_abstraction.o
 .data          0x00000000        0x0 ./source/utilities/src/fsl_rtos_abstraction.o
 .bss           0x00000000        0x0 ./source/utilities/src/fsl_rtos_abstraction.o
 .text.sync_reset
                0x00000000       0x20 ./source/utilities/src/fsl_rtos_abstraction.o
 .text          0x00000000        0x0 ./source/usb/bm_composite/composite.o
 .data          0x00000000        0x0 ./source/usb/bm_composite/composite.o
 .bss           0x00000000        0x0 ./source/usb/bm_composite/composite.o
 .text          0x00000000        0x0 ./source/usb/bm_composite/hid_bootloader.o
 .data          0x00000000        0x0 ./source/usb/bm_composite/hid_bootloader.o
 .bss           0x00000000        0x0 ./source/usb/bm_composite/hid_bootloader.o
 .text          0x00000000        0x0 ./source/usb/bm_composite/usb_descriptor.o
 .data          0x00000000        0x0 ./source/usb/bm_composite/usb_descriptor.o
 .bss           0x00000000        0x0 ./source/usb/bm_composite/usb_descriptor.o
 .data.g_msc_class
                0x00000000        0x8 ./source/usb/bm_composite/usb_descriptor.o
 .data.g_msc_disk_interface
                0x00000000       0x10 ./source/usb/bm_composite/usb_descriptor.o
 .data.g_msc_disk_interface_list
                0x00000000        0x8 ./source/usb/bm_composite/usb_descriptor.o
 .data.g_msc_disk_interfaces
                0x00000000        0xc ./source/usb/bm_composite/usb_descriptor.o
 .text          0x00000000        0x0 ./source/sbloader/src/sbloader.o
 .data          0x00000000        0x0 ./source/sbloader/src/sbloader.o
 .bss           0x00000000        0x0 ./source/sbloader/src/sbloader.o
 .text.ldr_DoKeyTest
                0x00000000       0x40 ./source/sbloader/src/sbloader.o
 .text.ldr_DoGetDek
                0x00000000        0xa ./source/sbloader/src/sbloader.o
 .text.ldr_DoHeaderMac
                0x00000000       0x1c ./source/sbloader/src/sbloader.o
 .text.ldr_DoJumpCmd
                0x00000000        0x6 ./source/sbloader/src/sbloader.o
 .text.ldr_DoResetCmd
                0x00000000        0x6 ./source/sbloader/src/sbloader.o
 .text          0x00000000        0x0 ./source/property/src/property_imx.o
 .data          0x00000000        0x0 ./source/property/src/property_imx.o
 .bss           0x00000000        0x0 ./source/property/src/property_imx.o
 .text.target_load_bootloader_config_area
                0x00000000        0x4 ./source/property/src/property_imx.o
 .text          0x00000000        0x0 ./source/packet/src/serial_packet.o
 .data          0x00000000        0x0 ./source/packet/src/serial_packet.o
 .bss           0x00000000        0x0 ./source/packet/src/serial_packet.o
 .text.serial_packet_queue_byte
                0x00000000       0x24 ./source/packet/src/serial_packet.o
 .text.serial_packet_init
                0x00000000        0x4 ./source/packet/src/serial_packet.o
 .text.serial_packet_abort
                0x00000000       0x14 ./source/packet/src/serial_packet.o
 .text.serial_packet_get_max_packet_size
                0x00000000        0x6 ./source/packet/src/serial_packet.o
 .text.write_data
                0x00000000       0x1c ./source/packet/src/serial_packet.o
 .text.read_data
                0x00000000       0xbc ./source/packet/src/serial_packet.o
 .text.read_start_byte
                0x00000000       0x18 ./source/packet/src/serial_packet.o
 .text.calculate_framing_crc16
                0x00000000       0x34 ./source/packet/src/serial_packet.o
 .text.serial_packet_send_sync
                0x00000000       0x28 ./source/packet/src/serial_packet.o
 .text.send_deferred_ack
                0x00000000       0x28 ./source/packet/src/serial_packet.o
 .text.serial_packet_finalize
                0x00000000        0x4 ./source/packet/src/serial_packet.o
 .text.serial_packet_write
                0x00000000       0xd4 ./source/packet/src/serial_packet.o
 .text.serial_send_ping_response
                0x00000000       0x48 ./source/packet/src/serial_packet.o
 .text.serial_packet_read
                0x00000000      0x110 ./source/packet/src/serial_packet.o
 .bss.g_serialContext
                0x00000000      0x454 ./source/packet/src/serial_packet.o
 .rodata.g_framingPacketInterface
                0x00000000       0x1c ./source/packet/src/serial_packet.o
 .rodata.k_PingResponse
                0x00000000        0x8 ./source/packet/src/serial_packet.o
 .debug_info    0x00000000     0x2df9 ./source/packet/src/serial_packet.o
 .debug_abbrev  0x00000000      0x516 ./source/packet/src/serial_packet.o
 .debug_loc     0x00000000      0x8d2 ./source/packet/src/serial_packet.o
 .debug_aranges
                0x00000000       0x88 ./source/packet/src/serial_packet.o
 .debug_ranges  0x00000000      0x138 ./source/packet/src/serial_packet.o
 .debug_line    0x00000000      0xc51 ./source/packet/src/serial_packet.o
 .debug_str     0x00000000     0x2c21 ./source/packet/src/serial_packet.o
 .comment       0x00000000       0x7a ./source/packet/src/serial_packet.o
 .debug_frame   0x00000000      0x178 ./source/packet/src/serial_packet.o
 .ARM.attributes
                0x00000000       0x32 ./source/packet/src/serial_packet.o
 .text          0x00000000        0x0 ./source/memory/src/flexspi_nor_memory.o
 .data          0x00000000        0x0 ./source/memory/src/flexspi_nor_memory.o
 .bss           0x00000000        0x0 ./source/memory/src/flexspi_nor_memory.o
 .text.is_flexspi_nor_configured
                0x00000000        0xc ./source/memory/src/flexspi_nor_memory.o
 .text          0x00000000        0x0 ./source/memory/src/memory.o
 .data          0x00000000        0x0 ./source/memory/src/memory.o
 .bss           0x00000000        0x0 ./source/memory/src/memory.o
 .text.mem_is_erased
                0x00000000       0x18 ./source/memory/src/memory.o
 .text          0x00000000        0x0 ./source/memory/src/mmc_memory.o
 .data          0x00000000        0x0 ./source/memory/src/mmc_memory.o
 .bss           0x00000000        0x0 ./source/memory/src/mmc_memory.o
 .debug_info    0x00000000     0x1984 ./source/memory/src/mmc_memory.o
 .debug_abbrev  0x00000000      0x1d2 ./source/memory/src/mmc_memory.o
 .debug_aranges
                0x00000000       0x18 ./source/memory/src/mmc_memory.o
 .debug_line    0x00000000      0x4c5 ./source/memory/src/mmc_memory.o
 .debug_str     0x00000000     0x14bc ./source/memory/src/mmc_memory.o
 .comment       0x00000000       0x7a ./source/memory/src/mmc_memory.o
 .ARM.attributes
                0x00000000       0x37 ./source/memory/src/mmc_memory.o
 .text          0x00000000        0x0 ./source/memory/src/normal_memory.o
 .data          0x00000000        0x0 ./source/memory/src/normal_memory.o
 .bss           0x00000000        0x0 ./source/memory/src/normal_memory.o
 .text.normal_mem_init
                0x00000000        0x4 ./source/memory/src/normal_memory.o
 .rodata.g_normalDTCMInterface
                0x00000000       0x1c ./source/memory/src/normal_memory.o
 .rodata.g_normalOCRAMInterface
                0x00000000       0x1c ./source/memory/src/normal_memory.o
 .data          0x00000000        0x0 ./source/memory/src/pattern_fill_gcc.o
 .bss           0x00000000        0x0 ./source/memory/src/pattern_fill_gcc.o
 .pattern_fill  0x00000000        0x0 ./source/memory/src/pattern_fill_gcc.o
 .text          0x00000000        0x0 ./source/memory/src/sd_memory.o
 .data          0x00000000        0x0 ./source/memory/src/sd_memory.o
 .bss           0x00000000        0x0 ./source/memory/src/sd_memory.o
 .debug_info    0x00000000     0x1984 ./source/memory/src/sd_memory.o
 .debug_abbrev  0x00000000      0x1d2 ./source/memory/src/sd_memory.o
 .debug_aranges
                0x00000000       0x18 ./source/memory/src/sd_memory.o
 .debug_line    0x00000000      0x4c5 ./source/memory/src/sd_memory.o
 .debug_str     0x00000000     0x14bb ./source/memory/src/sd_memory.o
 .comment       0x00000000       0x7a ./source/memory/src/sd_memory.o
 .ARM.attributes
                0x00000000       0x37 ./source/memory/src/sd_memory.o
 .text          0x00000000        0x0 ./source/memory/src/semc_nand_memory.o
 .data          0x00000000        0x0 ./source/memory/src/semc_nand_memory.o
 .bss           0x00000000        0x0 ./source/memory/src/semc_nand_memory.o
 .debug_info    0x00000000     0x1991 ./source/memory/src/semc_nand_memory.o
 .debug_abbrev  0x00000000      0x1d2 ./source/memory/src/semc_nand_memory.o
 .debug_aranges
                0x00000000       0x18 ./source/memory/src/semc_nand_memory.o
 .debug_line    0x00000000      0x52b ./source/memory/src/semc_nand_memory.o
 .debug_str     0x00000000     0x14cd ./source/memory/src/semc_nand_memory.o
 .comment       0x00000000       0x7a ./source/memory/src/semc_nand_memory.o
 .ARM.attributes
                0x00000000       0x37 ./source/memory/src/semc_nand_memory.o
 .text          0x00000000        0x0 ./source/memory/src/semc_nor_memory.o
 .data          0x00000000        0x0 ./source/memory/src/semc_nor_memory.o
 .bss           0x00000000        0x0 ./source/memory/src/semc_nor_memory.o
 .debug_info    0x00000000     0x1991 ./source/memory/src/semc_nor_memory.o
 .debug_abbrev  0x00000000      0x1d2 ./source/memory/src/semc_nor_memory.o
 .debug_aranges
                0x00000000       0x18 ./source/memory/src/semc_nor_memory.o
 .debug_line    0x00000000      0x52b ./source/memory/src/semc_nor_memory.o
 .debug_str     0x00000000     0x14cc ./source/memory/src/semc_nor_memory.o
 .comment       0x00000000       0x7a ./source/memory/src/semc_nor_memory.o
 .ARM.attributes
                0x00000000       0x37 ./source/memory/src/semc_nor_memory.o
 .text          0x00000000        0x0 ./source/memory/src/spi_nor_eeprom_memory.o
 .data          0x00000000        0x0 ./source/memory/src/spi_nor_eeprom_memory.o
 .bss           0x00000000        0x0 ./source/memory/src/spi_nor_eeprom_memory.o
 .debug_info    0x00000000     0x19b2 ./source/memory/src/spi_nor_eeprom_memory.o
 .debug_abbrev  0x00000000      0x1d2 ./source/memory/src/spi_nor_eeprom_memory.o
 .debug_aranges
                0x00000000       0x18 ./source/memory/src/spi_nor_eeprom_memory.o
 .debug_line    0x00000000      0x53a ./source/memory/src/spi_nor_eeprom_memory.o
 .debug_str     0x00000000     0x14e3 ./source/memory/src/spi_nor_eeprom_memory.o
 .comment       0x00000000       0x7a ./source/memory/src/spi_nor_eeprom_memory.o
 .ARM.attributes
                0x00000000       0x37 ./source/memory/src/spi_nor_eeprom_memory.o
 .text          0x00000000        0x0 ./source/memory/src/spinand_memory.o
 .data          0x00000000        0x0 ./source/memory/src/spinand_memory.o
 .bss           0x00000000        0x0 ./source/memory/src/spinand_memory.o
 .debug_info    0x00000000     0x1991 ./source/memory/src/spinand_memory.o
 .debug_abbrev  0x00000000      0x1d2 ./source/memory/src/spinand_memory.o
 .debug_aranges
                0x00000000       0x18 ./source/memory/src/spinand_memory.o
 .debug_line    0x00000000      0x52b ./source/memory/src/spinand_memory.o
 .debug_str     0x00000000     0x14cb ./source/memory/src/spinand_memory.o
 .comment       0x00000000       0x7a ./source/memory/src/spinand_memory.o
 .ARM.attributes
                0x00000000       0x37 ./source/memory/src/spinand_memory.o
 .text          0x00000000        0x0 ./source/memory/src/sram_init_MIMXRT1062.o
 .data          0x00000000        0x0 ./source/memory/src/sram_init_MIMXRT1062.o
 .bss           0x00000000        0x0 ./source/memory/src/sram_init_MIMXRT1062.o
 .text.sram_init
                0x00000000        0x4 ./source/memory/src/sram_init_MIMXRT1062.o
 .debug_info    0x00000000     0x187f ./source/memory/src/sram_init_MIMXRT1062.o
 .debug_abbrev  0x00000000      0x205 ./source/memory/src/sram_init_MIMXRT1062.o
 .debug_aranges
                0x00000000       0x20 ./source/memory/src/sram_init_MIMXRT1062.o
 .debug_ranges  0x00000000       0x10 ./source/memory/src/sram_init_MIMXRT1062.o
 .debug_line    0x00000000      0x4ef ./source/memory/src/sram_init_MIMXRT1062.o
 .debug_str     0x00000000     0x129f ./source/memory/src/sram_init_MIMXRT1062.o
 .comment       0x00000000       0x7a ./source/memory/src/sram_init_MIMXRT1062.o
 .debug_frame   0x00000000       0x20 ./source/memory/src/sram_init_MIMXRT1062.o
 .ARM.attributes
                0x00000000       0x32 ./source/memory/src/sram_init_MIMXRT1062.o
 .text          0x00000000        0x0 ./source/drivers/usdhc/bl_usdhc.o
 .data          0x00000000        0x0 ./source/drivers/usdhc/bl_usdhc.o
 .bss           0x00000000        0x0 ./source/drivers/usdhc/bl_usdhc.o
 .text.CLOCK_ControlGate
                0x00000000       0x24 ./source/drivers/usdhc/bl_usdhc.o
 .text.USDHC_GetInstance
                0x00000000       0x20 ./source/drivers/usdhc/bl_usdhc.o
 .text.USDHC_SetTransferInterrupt
                0x00000000       0x60 ./source/drivers/usdhc/bl_usdhc.o
 .text.USDHC_SetTransferConfig
                0x00000000       0xde ./source/drivers/usdhc/bl_usdhc.o
 .text.USDHC_ReceiveCommandResponse
                0x00000000       0x58 ./source/drivers/usdhc/bl_usdhc.o
 .text.USDHC_ReadDataPort
                0x00000000       0x44 ./source/drivers/usdhc/bl_usdhc.o
 .text.USDHC_WriteDataPort
                0x00000000       0x46 ./source/drivers/usdhc/bl_usdhc.o
 .text.USDHC_TransferHandleIRQ
                0x00000000       0xf8 ./source/drivers/usdhc/bl_usdhc.o
 .text.USDHC_SendCommand
                0x00000000       0x2a ./source/drivers/usdhc/bl_usdhc.o
 .text.USDHC_Deinit
                0x00000000       0x1c ./source/drivers/usdhc/bl_usdhc.o
 .text.USDHC_Reset
                0x00000000       0x22 ./source/drivers/usdhc/bl_usdhc.o
 .text.USDHC_Init
                0x00000000       0x84 ./source/drivers/usdhc/bl_usdhc.o
 .text.USDHC_GetCapability
                0x00000000       0x16 ./source/drivers/usdhc/bl_usdhc.o
 .text.USDHC_SetSdClock
                0x00000000       0xb0 ./source/drivers/usdhc/bl_usdhc.o
 .text.USDHC_SetCardActive
                0x00000000       0x1e ./source/drivers/usdhc/bl_usdhc.o
 .text.USDHC_SetMmcBootConfig
                0x00000000       0x34 ./source/drivers/usdhc/bl_usdhc.o
 .text.USDHC_SetAdmaTableConfig
                0x00000000      0x184 ./source/drivers/usdhc/bl_usdhc.o
 .text.USDHC_TransferBlocking
                0x00000000      0x230 ./source/drivers/usdhc/bl_usdhc.o
 .text.USDHC_TransferNonBlocking
                0x00000000       0xae ./source/drivers/usdhc/bl_usdhc.o
 .text.USDHC_EnableManualTuning
                0x00000000       0x28 ./source/drivers/usdhc/bl_usdhc.o
 .text.USDHC_AdjustDelayForManualTuning
                0x00000000       0x1e ./source/drivers/usdhc/bl_usdhc.o
 .text.USDHC_EnableStandardTuning
                0x00000000       0x4a ./source/drivers/usdhc/bl_usdhc.o
 .text.USDHC_EnableAutoTuningForCmdAndData
                0x00000000       0x5a ./source/drivers/usdhc/bl_usdhc.o
 .text.USDHC_TransferCreateHandle
                0x00000000       0x84 ./source/drivers/usdhc/bl_usdhc.o
 .rodata.s_usdhcClock
                0x00000000        0x6 ./source/drivers/usdhc/bl_usdhc.o
 .rodata.s_usdhcIRQ
                0x00000000        0x6 ./source/drivers/usdhc/bl_usdhc.o
 .text          0x00000000        0x0 ./source/drivers/trng/bl_trng.o
 .data          0x00000000        0x0 ./source/drivers/trng/bl_trng.o
 .bss           0x00000000        0x0 ./source/drivers/trng/bl_trng.o
 .text.TRNG_Deinit
                0x00000000       0x24 ./source/drivers/trng/bl_trng.o
 .text          0x00000000        0x0 ./source/drivers/serial_nor_eeprom/serial_nor_eeprom.o
 .data          0x00000000        0x0 ./source/drivers/serial_nor_eeprom/serial_nor_eeprom.o
 .bss           0x00000000        0x0 ./source/drivers/serial_nor_eeprom/serial_nor_eeprom.o
 .text.serial_nor_eeprom_common_sequence
                0x00000000      0x118 ./source/drivers/serial_nor_eeprom/serial_nor_eeprom.o
 .text.serial_nor_eeprom_enable_write
                0x00000000       0x4c ./source/drivers/serial_nor_eeprom/serial_nor_eeprom.o
 .text.serial_nor_eeprom_is_busy
                0x00000000       0x28 ./source/drivers/serial_nor_eeprom/serial_nor_eeprom.o
 .text.serial_nor_eeprom_init
                0x00000000       0x60 ./source/drivers/serial_nor_eeprom/serial_nor_eeprom.o
 .text.serial_nor_eeprom_read
                0x00000000       0x38 ./source/drivers/serial_nor_eeprom/serial_nor_eeprom.o
 .text.serial_nor_eeprom_write
                0x00000000       0x7c ./source/drivers/serial_nor_eeprom/serial_nor_eeprom.o
 .text.serial_nor_eeprom_soft_erase
                0x00000000       0x34 ./source/drivers/serial_nor_eeprom/serial_nor_eeprom.o
 .text.serial_nor_eeprom_erase
                0x00000000       0x84 ./source/drivers/serial_nor_eeprom/serial_nor_eeprom.o
 .text.serial_nor_eeprom_erase_all
                0x00000000       0x50 ./source/drivers/serial_nor_eeprom/serial_nor_eeprom.o
 .bss.s_serialNorEepromContext
                0x00000000       0x20 ./source/drivers/serial_nor_eeprom/serial_nor_eeprom.o
 .debug_info    0x00000000     0x19b6 ./source/drivers/serial_nor_eeprom/serial_nor_eeprom.o
 .debug_abbrev  0x00000000      0x401 ./source/drivers/serial_nor_eeprom/serial_nor_eeprom.o
 .debug_loc     0x00000000      0xc2c ./source/drivers/serial_nor_eeprom/serial_nor_eeprom.o
 .debug_aranges
                0x00000000       0x60 ./source/drivers/serial_nor_eeprom/serial_nor_eeprom.o
 .debug_ranges  0x00000000      0x130 ./source/drivers/serial_nor_eeprom/serial_nor_eeprom.o
 .debug_line    0x00000000      0xa56 ./source/drivers/serial_nor_eeprom/serial_nor_eeprom.o
 .debug_str     0x00000000     0x1cee ./source/drivers/serial_nor_eeprom/serial_nor_eeprom.o
 .comment       0x00000000       0x7a ./source/drivers/serial_nor_eeprom/serial_nor_eeprom.o
 .debug_frame   0x00000000      0x15c ./source/drivers/serial_nor_eeprom/serial_nor_eeprom.o
 .ARM.attributes
                0x00000000       0x32 ./source/drivers/serial_nor_eeprom/serial_nor_eeprom.o
 .text          0x00000000        0x0 ./source/drivers/semc_nor/semc_nor_flash.o
 .data          0x00000000        0x0 ./source/drivers/semc_nor/semc_nor_flash.o
 .bss           0x00000000        0x0 ./source/drivers/semc_nor/semc_nor_flash.o
 .text.semc_nor_issue_unlock_bypass_reset
                0x00000000       0x30 ./source/drivers/semc_nor/semc_nor_flash.o
 .text.semc_nor_issue_reset_to_read
                0x00000000       0x3e ./source/drivers/semc_nor/semc_nor_flash.o
 .text.semc_nor_check_toggle_bit
                0x00000000       0xb2 ./source/drivers/semc_nor/semc_nor_flash.o
 .text.semc_nor_issue_unlock_bypass.isra.0
                0x00000000       0x32 ./source/drivers/semc_nor/semc_nor_flash.o
 .text.semc_nor_get_specific_ac_cycles
                0x00000000       0x54 ./source/drivers/semc_nor/semc_nor_flash.o
 .text.semc_nor_flash_verify_erase
                0x00000000       0x1a ./source/drivers/semc_nor/semc_nor_flash.o
 .text.semc_nor_flash_verify_program
                0x00000000       0x22 ./source/drivers/semc_nor/semc_nor_flash.o
 .text.semc_nor_flash_page_program
                0x00000000      0x178 ./source/drivers/semc_nor/semc_nor_flash.o
 .text.semc_nor_flash_erase_block
                0x00000000       0xe4 ./source/drivers/semc_nor/semc_nor_flash.o
 .bss.s_norOperationInfo
                0x00000000        0xc ./source/drivers/semc_nor/semc_nor_flash.o
 .rodata.CSWTCH.19
                0x00000000        0x7 ./source/drivers/semc_nor/semc_nor_flash.o
 .rodata.s_norAcTimingParameterTable
                0x00000000       0x30 ./source/drivers/semc_nor/semc_nor_flash.o
 .debug_info    0x00000000     0x24e1 ./source/drivers/semc_nor/semc_nor_flash.o
 .debug_abbrev  0x00000000      0x43e ./source/drivers/semc_nor/semc_nor_flash.o
 .debug_loc     0x00000000      0xddf ./source/drivers/semc_nor/semc_nor_flash.o
 .debug_aranges
                0x00000000       0x60 ./source/drivers/semc_nor/semc_nor_flash.o
 .debug_ranges  0x00000000      0x118 ./source/drivers/semc_nor/semc_nor_flash.o
 .debug_line    0x00000000      0x996 ./source/drivers/semc_nor/semc_nor_flash.o
 .debug_str     0x00000000     0x2711 ./source/drivers/semc_nor/semc_nor_flash.o
 .comment       0x00000000       0x7a ./source/drivers/semc_nor/semc_nor_flash.o
 .debug_frame   0x00000000      0x14c ./source/drivers/semc_nor/semc_nor_flash.o
 .ARM.attributes
                0x00000000       0x32 ./source/drivers/semc_nor/semc_nor_flash.o
 .text          0x00000000        0x0 ./source/drivers/semc_nand/semc_nand_flash.o
 .data          0x00000000        0x0 ./source/drivers/semc_nand/semc_nand_flash.o
 .bss           0x00000000        0x0 ./source/drivers/semc_nand/semc_nand_flash.o
 .text.semc_nand_issue_read_status
                0x00000000       0x54 ./source/drivers/semc_nand/semc_nand_flash.o
 .text.semc_nand_wait_for_ready
                0x00000000       0x8e ./source/drivers/semc_nand/semc_nand_flash.o
 .text.semc_nand_issue_read_page
                0x00000000       0x74 ./source/drivers/semc_nand/semc_nand_flash.o
 .text.semc_nand_issue_read_mode
                0x00000000       0x2e ./source/drivers/semc_nand/semc_nand_flash.o
 .text.semc_nand_write_ecc_data_in_spare_area
                0x00000000       0xfc ./source/drivers/semc_nand/semc_nand_flash.o
 .text.semc_nand_is_device_ecc_check_passed
                0x00000000       0x3e ./source/drivers/semc_nand/semc_nand_flash.o
 .text.semc_nand_read_spare_page_process
                0x00000000       0xd0 ./source/drivers/semc_nand/semc_nand_flash.o
 .text.semc_nand_flash_read_page
                0x00000000      0x214 ./source/drivers/semc_nand/semc_nand_flash.o
 .text.semc_nand_flash_verify_erase
                0x00000000       0x4e ./source/drivers/semc_nand/semc_nand_flash.o
 .text.semc_nand_flash_erase_block
                0x00000000       0xbc ./source/drivers/semc_nand/semc_nand_flash.o
 .text.semc_nand_flash_verify_page_program
                0x00000000       0x30 ./source/drivers/semc_nand/semc_nand_flash.o
 .text.semc_nand_flash_page_program
                0x00000000      0x1b4 ./source/drivers/semc_nand/semc_nand_flash.o
 .bss.s_nandCommEccParityData
                0x00000000       0x80 ./source/drivers/semc_nand/semc_nand_flash.o
 .bss.s_nandOperationInfo
                0x00000000       0x1c ./source/drivers/semc_nand/semc_nand_flash.o
 .bss.s_nandReadbackBlockBuffer
                0x00000000      0x200 ./source/drivers/semc_nand/semc_nand_flash.o
 .rodata.s_nandAcTimingParameterTable
                0x00000000       0xe0 ./source/drivers/semc_nand/semc_nand_flash.o
 .rodata.s_nandDeviceManufacturerList
                0x00000000       0x60 ./source/drivers/semc_nand/semc_nand_flash.o
 .debug_info    0x00000000     0x3679 ./source/drivers/semc_nand/semc_nand_flash.o
 .debug_abbrev  0x00000000      0x42a ./source/drivers/semc_nand/semc_nand_flash.o
 .debug_loc     0x00000000     0x1db6 ./source/drivers/semc_nand/semc_nand_flash.o
 .debug_aranges
                0x00000000       0x78 ./source/drivers/semc_nand/semc_nand_flash.o
 .debug_ranges  0x00000000      0x268 ./source/drivers/semc_nand/semc_nand_flash.o
 .debug_line    0x00000000     0x116f ./source/drivers/semc_nand/semc_nand_flash.o
 .debug_str     0x00000000     0x2e45 ./source/drivers/semc_nand/semc_nand_flash.o
 .comment       0x00000000       0x7a ./source/drivers/semc_nand/semc_nand_flash.o
 .debug_frame   0x00000000      0x1e0 ./source/drivers/semc_nand/semc_nand_flash.o
 .ARM.attributes
                0x00000000       0x32 ./source/drivers/semc_nand/semc_nand_flash.o
 .text          0x00000000        0x0 ./source/drivers/semc/bl_semc.o
 .data          0x00000000        0x0 ./source/drivers/semc/bl_semc.o
 .bss           0x00000000        0x0 ./source/drivers/semc/bl_semc.o
 .text.semc_ipg_command_wait_for_done
                0x00000000       0x2c ./source/drivers/semc/bl_semc.o
 .text.semc_wait_for_idle
                0x00000000       0x28 ./source/drivers/semc/bl_semc.o
 .text.semc_ipg_command_set_data_size
                0x00000000       0x58 ./source/drivers/semc/bl_semc.o
 .text.semc_set_macthed_ipg_command_data_size
                0x00000000       0x18 ./source/drivers/semc/bl_semc.o
 .text.semc_ipg_command_get_data_size
                0x00000000       0x18 ./source/drivers/semc/bl_semc.o
 .text.semc_ipg_command_device_write
                0x00000000       0x48 ./source/drivers/semc/bl_semc.o
 .text.semc_ipg_command_device_read
                0x00000000       0x54 ./source/drivers/semc/bl_semc.o
 .text.semc_ipg_memory_read
                0x00000000       0x4a ./source/drivers/semc/bl_semc.o
 .text.semc_ipg_memory_write
                0x00000000       0x70 ./source/drivers/semc/bl_semc.o
 .text.semc_axi_memory_read
                0x00000000       0x14 ./source/drivers/semc/bl_semc.o
 .text.semc_axi_memory_write
                0x00000000        0xe ./source/drivers/semc/bl_semc.o
 .text.semc_is_nand_ready
                0x00000000       0x10 ./source/drivers/semc/bl_semc.o
 .text.semc_ipg_command_get_nand_code
                0x00000000       0x10 ./source/drivers/semc/bl_semc.o
 .text.semc_ipg_command_convert_nand_address
                0x00000000       0x28 ./source/drivers/semc/bl_semc.o
 .text.semc_ipg_command_nand_access
                0x00000000       0x74 ./source/drivers/semc/bl_semc.o
 .text.semc_ipg_command_convert_nor_address
                0x00000000       0x16 ./source/drivers/semc/bl_semc.o
 .rodata.s_semcAxiQueueWeightConfig
                0x00000000        0x8 ./source/drivers/semc/bl_semc.o
 .debug_info    0x00000000     0x1f39 ./source/drivers/semc/bl_semc.o
 .debug_abbrev  0x00000000      0x463 ./source/drivers/semc/bl_semc.o
 .debug_loc     0x00000000      0xac3 ./source/drivers/semc/bl_semc.o
 .debug_aranges
                0x00000000       0x98 ./source/drivers/semc/bl_semc.o
 .debug_ranges  0x00000000       0xb8 ./source/drivers/semc/bl_semc.o
 .debug_line    0x00000000      0x9a5 ./source/drivers/semc/bl_semc.o
 .debug_str     0x00000000     0x1db3 ./source/drivers/semc/bl_semc.o
 .comment       0x00000000       0x7a ./source/drivers/semc/bl_semc.o
 .debug_frame   0x00000000      0x180 ./source/drivers/semc/bl_semc.o
 .ARM.attributes
                0x00000000       0x32 ./source/drivers/semc/bl_semc.o
 .text          0x00000000        0x0 ./source/drivers/sdmmc/bl_host.o
 .data          0x00000000        0x0 ./source/drivers/sdmmc/bl_host.o
 .bss           0x00000000        0x0 ./source/drivers/sdmmc/bl_host.o
 .text.USDHC_TransferFunction
                0x00000000       0x64 ./source/drivers/sdmmc/bl_host.o
 .text.CardInsertDetect
                0x00000000       0x40 ./source/drivers/sdmmc/bl_host.o
 .text.HOST_Init
                0x00000000       0x28 ./source/drivers/sdmmc/bl_host.o
 .text.HOST_Reset
                0x00000000       0x1e ./source/drivers/sdmmc/bl_host.o
 .text.HOST_Deinit
                0x00000000        0x6 ./source/drivers/sdmmc/bl_host.o
 .bss.g_sdInsertedFlag
                0x00000000        0x1 ./source/drivers/sdmmc/bl_host.o
 NonCacheable   0x00000000       0x20 ./source/drivers/sdmmc/bl_host.o
 .debug_info    0x00000000     0x186f ./source/drivers/sdmmc/bl_host.o
 .debug_abbrev  0x00000000      0x3ce ./source/drivers/sdmmc/bl_host.o
 .debug_loc     0x00000000      0x23c ./source/drivers/sdmmc/bl_host.o
 .debug_aranges
                0x00000000       0x40 ./source/drivers/sdmmc/bl_host.o
 .debug_ranges  0x00000000       0x60 ./source/drivers/sdmmc/bl_host.o
 .debug_line    0x00000000      0x5f6 ./source/drivers/sdmmc/bl_host.o
 .debug_str     0x00000000     0x1bc0 ./source/drivers/sdmmc/bl_host.o
 .comment       0x00000000       0x7a ./source/drivers/sdmmc/bl_host.o
 .debug_frame   0x00000000       0x84 ./source/drivers/sdmmc/bl_host.o
 .ARM.attributes
                0x00000000       0x32 ./source/drivers/sdmmc/bl_host.o
 .text          0x00000000        0x0 ./source/drivers/sdmmc/bl_mmc.o
 .data          0x00000000        0x0 ./source/drivers/sdmmc/bl_mmc.o
 .bss           0x00000000        0x0 ./source/drivers/sdmmc/bl_mmc.o
 .text.MMC_SendOperationCondition
                0x00000000       0x56 ./source/drivers/sdmmc/bl_mmc.o
 .text.MMC_SetRelativeAddress
                0x00000000       0x50 ./source/drivers/sdmmc/bl_mmc.o
 .text.MMC_CheckBlockRange
                0x00000000       0x46 ./source/drivers/sdmmc/bl_mmc.o
 .text.MMC_SetMaxFrequency
                0x00000000       0x38 ./source/drivers/sdmmc/bl_mmc.o
 .text.MMC_AllSendCid
                0x00000000       0x8c ./source/drivers/sdmmc/bl_mmc.o
 .text.MMC_SendCsd
                0x00000000      0x1da ./source/drivers/sdmmc/bl_mmc.o
 .text.MMC_SelectCard
                0x00000000        0xc ./source/drivers/sdmmc/bl_mmc.o
 .text.MMC_ExecuteTuning
                0x00000000       0x2a ./source/drivers/sdmmc/bl_mmc.o
 .text.MMC_Transfer
                0x00000000       0x74 ./source/drivers/sdmmc/bl_mmc.o
 .text.MMC_WaitWriteComplete
                0x00000000       0x5c ./source/drivers/sdmmc/bl_mmc.o
 .text.MMC_StopTransmission
                0x00000000       0x48 ./source/drivers/sdmmc/bl_mmc.o
 .text.MMC_BL_SendOperationCondition
                0x00000000       0x88 ./source/drivers/sdmmc/bl_mmc.o
 .text.MMC_SetExtendedCsdConfig
                0x00000000       0x54 ./source/drivers/sdmmc/bl_mmc.o
 .text.MMC_SetDataBusWidth
                0x00000000       0x46 ./source/drivers/sdmmc/bl_mmc.o
 .text.MMC_SetMaxEraseUnitSize
                0x00000000       0x50 ./source/drivers/sdmmc/bl_mmc.o
 .text.MMC_SwitchHSTiming.constprop.0
                0x00000000       0x46 ./source/drivers/sdmmc/bl_mmc.o
 .text.MMC_TestDataBusWidth
                0x00000000      0x120 ./source/drivers/sdmmc/bl_mmc.o
 .text.MMC_SetMaxDataBusWidth
                0x00000000       0x8e ./source/drivers/sdmmc/bl_mmc.o
 .text.MMC_BL_SelectBusWidth
                0x00000000       0x92 ./source/drivers/sdmmc/bl_mmc.o
 .text.MMC_SendExtendedCsd.constprop.0
                0x00000000      0x2bc ./source/drivers/sdmmc/bl_mmc.o
 .text.MMC_Init
                0x00000000      0x350 ./source/drivers/sdmmc/bl_mmc.o
 .text.MMC_Deinit
                0x00000000       0x18 ./source/drivers/sdmmc/bl_mmc.o
 .text.MMC_BL_Init
                0x00000000      0x1e4 ./source/drivers/sdmmc/bl_mmc.o
 .text.MMC_CheckReadOnly
                0x00000000       0x10 ./source/drivers/sdmmc/bl_mmc.o
 .text.MMC_SelectPartition
                0x00000000       0x3c ./source/drivers/sdmmc/bl_mmc.o
 .text.MMC_ReadBlocks
                0x00000000      0x104 ./source/drivers/sdmmc/bl_mmc.o
 .text.MMC_WriteBlocks
                0x00000000       0xf0 ./source/drivers/sdmmc/bl_mmc.o
 .text.MMC_EraseGroups
                0x00000000       0xf4 ./source/drivers/sdmmc/bl_mmc.o
 .text.MMC_SetBootConfig
                0x00000000       0x8e ./source/drivers/sdmmc/bl_mmc.o
 .rodata.g_transerSpeedFrequencyUnit
                0x00000000       0x10 ./source/drivers/sdmmc/bl_mmc.o
 .rodata.g_transerSpeedMultiplierFactor
                0x00000000       0x40 ./source/drivers/sdmmc/bl_mmc.o
 .debug_info    0x00000000     0x5086 ./source/drivers/sdmmc/bl_mmc.o
 .debug_abbrev  0x00000000      0x490 ./source/drivers/sdmmc/bl_mmc.o
 .debug_loc     0x00000000     0x2392 ./source/drivers/sdmmc/bl_mmc.o
 .debug_aranges
                0x00000000      0x100 ./source/drivers/sdmmc/bl_mmc.o
 .debug_ranges  0x00000000      0x418 ./source/drivers/sdmmc/bl_mmc.o
 .debug_line    0x00000000     0x2497 ./source/drivers/sdmmc/bl_mmc.o
 .debug_str     0x00000000     0x48bf ./source/drivers/sdmmc/bl_mmc.o
 .comment       0x00000000       0x7a ./source/drivers/sdmmc/bl_mmc.o
 .debug_frame   0x00000000      0x3d0 ./source/drivers/sdmmc/bl_mmc.o
 .ARM.attributes
                0x00000000       0x32 ./source/drivers/sdmmc/bl_mmc.o
 .text          0x00000000        0x0 ./source/drivers/sdmmc/bl_sd.o
 .data          0x00000000        0x0 ./source/drivers/sdmmc/bl_sd.o
 .bss           0x00000000        0x0 ./source/drivers/sdmmc/bl_sd.o
 .text.SD_SendRca
                0x00000000       0x3e ./source/drivers/sdmmc/bl_sd.o
 .text.SD_AllSendCid
                0x00000000       0x8e ./source/drivers/sdmmc/bl_sd.o
 .text.SD_SendCsd
                0x00000000      0x1e2 ./source/drivers/sdmmc/bl_sd.o
 .text.SD_SelectCard
                0x00000000        0xc ./source/drivers/sdmmc/bl_sd.o
 .text.SD_ExecuteTuning
                0x00000000        0xc ./source/drivers/sdmmc/bl_sd.o
 .text.SD_Transfer
                0x00000000       0x80 ./source/drivers/sdmmc/bl_sd.o
 .text.SD_WaitWriteComplete
                0x00000000       0x54 ./source/drivers/sdmmc/bl_sd.o
 .text.SD_StopTransmission
                0x00000000       0x48 ./source/drivers/sdmmc/bl_sd.o
 .text.SD_SendScr
                0x00000000      0x170 ./source/drivers/sdmmc/bl_sd.o
 .text.SD_SetDataBusWidth.constprop.0
                0x00000000       0x60 ./source/drivers/sdmmc/bl_sd.o
 .text.SD_SwitchFunction.constprop.0
                0x00000000       0x98 ./source/drivers/sdmmc/bl_sd.o
 .text.SD_SelectFunction
                0x00000000      0x130 ./source/drivers/sdmmc/bl_sd.o
 .text.SD_Init  0x00000000      0x31c ./source/drivers/sdmmc/bl_sd.o
 .text.SD_BL_Init
                0x00000000      0x2f4 ./source/drivers/sdmmc/bl_sd.o
 .text.SD_Deinit
                0x00000000       0x18 ./source/drivers/sdmmc/bl_sd.o
 .text.SD_CheckReadOnly
                0x00000000       0x10 ./source/drivers/sdmmc/bl_sd.o
 .text.SD_ReadBlocks
                0x00000000       0xe8 ./source/drivers/sdmmc/bl_sd.o
 .text.SD_WriteBlocks
                0x00000000       0xf0 ./source/drivers/sdmmc/bl_sd.o
 .text.SD_EraseBlocks
                0x00000000       0xe8 ./source/drivers/sdmmc/bl_sd.o
 .rodata.CSWTCH.31
                0x00000000       0x10 ./source/drivers/sdmmc/bl_sd.o
 .debug_info    0x00000000     0x40e0 ./source/drivers/sdmmc/bl_sd.o
 .debug_abbrev  0x00000000      0x3f2 ./source/drivers/sdmmc/bl_sd.o
 .debug_loc     0x00000000     0x1630 ./source/drivers/sdmmc/bl_sd.o
 .debug_aranges
                0x00000000       0xb0 ./source/drivers/sdmmc/bl_sd.o
 .debug_ranges  0x00000000      0x308 ./source/drivers/sdmmc/bl_sd.o
 .debug_line    0x00000000     0x1e31 ./source/drivers/sdmmc/bl_sd.o
 .debug_str     0x00000000     0x305f ./source/drivers/sdmmc/bl_sd.o
 .comment       0x00000000       0x7a ./source/drivers/sdmmc/bl_sd.o
 .debug_frame   0x00000000      0x2bc ./source/drivers/sdmmc/bl_sd.o
 .ARM.attributes
                0x00000000       0x32 ./source/drivers/sdmmc/bl_sd.o
 .text          0x00000000        0x0 ./source/drivers/sdmmc/bl_sdmmc.o
 .data          0x00000000        0x0 ./source/drivers/sdmmc/bl_sdmmc.o
 .bss           0x00000000        0x0 ./source/drivers/sdmmc/bl_sdmmc.o
 .text.SDMMC_Delay
                0x00000000       0x2e ./source/drivers/sdmmc/bl_sdmmc.o
 .text.SDMMC_SelectCard
                0x00000000       0x54 ./source/drivers/sdmmc/bl_sdmmc.o
 .text.SDMMC_SendApplicationCommand
                0x00000000       0x54 ./source/drivers/sdmmc/bl_sdmmc.o
 .text.SDMMC_SetBlockCount
                0x00000000       0x48 ./source/drivers/sdmmc/bl_sdmmc.o
 .text.SDMMC_GoIdle
                0x00000000       0x30 ./source/drivers/sdmmc/bl_sdmmc.o
 .text.SDMMC_SetBlockSize
                0x00000000       0x48 ./source/drivers/sdmmc/bl_sdmmc.o
 .text.SDMMC_SetCardInactive
                0x00000000       0x38 ./source/drivers/sdmmc/bl_sdmmc.o
 .text.SDMMC_SwitchVoltage
                0x00000000       0x80 ./source/drivers/sdmmc/bl_sdmmc.o
 .text.SDMMC_BL_SwitchVoltage
                0x00000000       0x84 ./source/drivers/sdmmc/bl_sdmmc.o
 .text.SDMMC_ExecuteTuning
                0x00000000       0xd0 ./source/drivers/sdmmc/bl_sdmmc.o
 .bss.g_sdmmc   0x00000000      0x100 ./source/drivers/sdmmc/bl_sdmmc.o
 .debug_info    0x00000000     0x1fab ./source/drivers/sdmmc/bl_sdmmc.o
 .debug_abbrev  0x00000000      0x3fb ./source/drivers/sdmmc/bl_sdmmc.o
 .debug_loc     0x00000000      0x61e ./source/drivers/sdmmc/bl_sdmmc.o
 .debug_aranges
                0x00000000       0x68 ./source/drivers/sdmmc/bl_sdmmc.o
 .debug_ranges  0x00000000       0xe8 ./source/drivers/sdmmc/bl_sdmmc.o
 .debug_line    0x00000000      0xaad ./source/drivers/sdmmc/bl_sdmmc.o
 .debug_str     0x00000000     0x2373 ./source/drivers/sdmmc/bl_sdmmc.o
 .comment       0x00000000       0x7a ./source/drivers/sdmmc/bl_sdmmc.o
 .debug_frame   0x00000000      0x174 ./source/drivers/sdmmc/bl_sdmmc.o
 .ARM.attributes
                0x00000000       0x32 ./source/drivers/sdmmc/bl_sdmmc.o
 .text          0x00000000        0x0 ./source/drivers/ocotp/bl_ocotp.o
 .data          0x00000000        0x0 ./source/drivers/ocotp/bl_ocotp.o
 .bss           0x00000000        0x0 ./source/drivers/ocotp/bl_ocotp.o
 .text          0x00000000        0x0 ./source/drivers/nand_ecc/nand_ecc.o
 .data          0x00000000        0x0 ./source/drivers/nand_ecc/nand_ecc.o
 .bss           0x00000000        0x0 ./source/drivers/nand_ecc/nand_ecc.o
 .text.nand_ecc_sec_calculate_encode
                0x00000000      0x158 ./source/drivers/nand_ecc/nand_ecc.o
 .text.nand_ecc_count_bit1
                0x00000000       0x20 ./source/drivers/nand_ecc/nand_ecc.o
 .text.nand_ecc_sec_verify_correct
                0x00000000      0x118 ./source/drivers/nand_ecc/nand_ecc.o
 .rodata        0x00000000        0x3 ./source/drivers/nand_ecc/nand_ecc.o
 .rodata.s_eccByteParityTable
                0x00000000      0x100 ./source/drivers/nand_ecc/nand_ecc.o
 .debug_info    0x00000000     0x12d3 ./source/drivers/nand_ecc/nand_ecc.o
 .debug_abbrev  0x00000000      0x2ed ./source/drivers/nand_ecc/nand_ecc.o
 .debug_loc     0x00000000      0x395 ./source/drivers/nand_ecc/nand_ecc.o
 .debug_aranges
                0x00000000       0x30 ./source/drivers/nand_ecc/nand_ecc.o
 .debug_ranges  0x00000000       0x38 ./source/drivers/nand_ecc/nand_ecc.o
 .debug_line    0x00000000      0x67a ./source/drivers/nand_ecc/nand_ecc.o
 .debug_str     0x00000000     0x1218 ./source/drivers/nand_ecc/nand_ecc.o
 .comment       0x00000000       0x7a ./source/drivers/nand_ecc/nand_ecc.o
 .debug_frame   0x00000000       0x78 ./source/drivers/nand_ecc/nand_ecc.o
 .ARM.attributes
                0x00000000       0x32 ./source/drivers/nand_ecc/nand_ecc.o
 .text          0x00000000        0x0 ./source/drivers/microseconds/microseconds_pit.o
 .data          0x00000000        0x0 ./source/drivers/microseconds/microseconds_pit.o
 .bss           0x00000000        0x0 ./source/drivers/microseconds/microseconds_pit.o
 .text.microseconds_convert_to_microseconds
                0x00000000       0x10 ./source/drivers/microseconds/microseconds_pit.o
 .text.microseconds_delay
                0x00000000       0x30 ./source/drivers/microseconds/microseconds_pit.o
 .text.microseconds_set_delay
                0x00000000       0x2c ./source/drivers/microseconds/microseconds_pit.o
 .text.microseconds_timeout
                0x00000000       0x20 ./source/drivers/microseconds/microseconds_pit.o
 .text.microseconds_get_clock
                0x00000000        0x4 ./source/drivers/microseconds/microseconds_pit.o
 .bss.s_timeoutTicks
                0x00000000        0x8 ./source/drivers/microseconds/microseconds_pit.o
 .text          0x00000000        0x0 ./source/drivers/flexspi_nor/flexspi_nor_flash.o
 .data          0x00000000        0x0 ./source/drivers/flexspi_nor/flexspi_nor_flash.o
 .bss           0x00000000        0x0 ./source/drivers/flexspi_nor/flexspi_nor_flash.o
 .text.flexspi_nor_wait_busy
                0x00000000       0x5c ./source/drivers/flexspi_nor/flexspi_nor_flash.o
 .text.flexspi_nor_write_enable
                0x00000000       0x9c ./source/drivers/flexspi_nor/flexspi_nor_flash.o
 .text.flexspi_nor_restore_no_cmd_mode
                0x00000000       0x44 ./source/drivers/flexspi_nor/flexspi_nor_flash.o
 .text.flexspi_change_serial_clock
                0x00000000       0x9a ./source/drivers/flexspi_nor/flexspi_nor_flash.o
 .text.flexspi_nor_flash_erase_sector
                0x00000000       0xb4 ./source/drivers/flexspi_nor/flexspi_nor_flash.o
 .text.flexspi_nor_flash_erase_block
                0x00000000       0xb4 ./source/drivers/flexspi_nor/flexspi_nor_flash.o
 .text.get_page_sector_block_size_from_sfdp
                0x00000000      0x11a ./source/drivers/flexspi_nor/flexspi_nor_flash.o
 .text.flexspi_nor_restore_spi_protocol
                0x00000000      0x144 ./source/drivers/flexspi_nor/flexspi_nor_flash.o
 .debug_info    0x00000000     0x2914 ./source/drivers/flexspi_nor/flexspi_nor_flash.o
 .debug_abbrev  0x00000000      0x405 ./source/drivers/flexspi_nor/flexspi_nor_flash.o
 .debug_loc     0x00000000      0xf4f ./source/drivers/flexspi_nor/flexspi_nor_flash.o
 .debug_aranges
                0x00000000       0x58 ./source/drivers/flexspi_nor/flexspi_nor_flash.o
 .debug_ranges  0x00000000      0x128 ./source/drivers/flexspi_nor/flexspi_nor_flash.o
 .debug_line    0x00000000      0xbe6 ./source/drivers/flexspi_nor/flexspi_nor_flash.o
 .debug_str     0x00000000     0x1f7f ./source/drivers/flexspi_nor/flexspi_nor_flash.o
 .comment       0x00000000       0x7a ./source/drivers/flexspi_nor/flexspi_nor_flash.o
 .debug_frame   0x00000000      0x150 ./source/drivers/flexspi_nor/flexspi_nor_flash.o
 .ARM.attributes
                0x00000000       0x32 ./source/drivers/flexspi_nor/flexspi_nor_flash.o
 .text          0x00000000        0x0 ./source/drivers/flexspi_nand/flexspi_nand_flash.o
 .data          0x00000000        0x0 ./source/drivers/flexspi_nand/flexspi_nand_flash.o
 .bss           0x00000000        0x0 ./source/drivers/flexspi_nand/flexspi_nand_flash.o
 .text.flexspi_nand_check_error_status
                0x00000000       0x5e ./source/drivers/flexspi_nand/flexspi_nand_flash.o
 .text.flexspi_nand_check_ecc_status
                0x00000000       0x86 ./source/drivers/flexspi_nand/flexspi_nand_flash.o
 .text.flexspi_nand_init
                0x00000000       0x26 ./source/drivers/flexspi_nand/flexspi_nand_flash.o
 .text.flexspi_nand_read_page
                0x00000000      0x154 ./source/drivers/flexspi_nand/flexspi_nand_flash.o
 .text.flexspi_nand_erase_block
                0x00000000       0xc4 ./source/drivers/flexspi_nand/flexspi_nand_flash.o
 .text.flexspi_nand_erase
                0x00000000       0x2e ./source/drivers/flexspi_nand/flexspi_nand_flash.o
 .text.flexspi_nand_program_page
                0x00000000      0x14a ./source/drivers/flexspi_nand/flexspi_nand_flash.o
 .text.flexspi_nand_get_config
                0x00000000      0x248 ./source/drivers/flexspi_nand/flexspi_nand_flash.o
 .rodata.CSWTCH.18
                0x00000000        0x8 ./source/drivers/flexspi_nand/flexspi_nand_flash.o
 .rodata.CSWTCH.19
                0x00000000        0xc ./source/drivers/flexspi_nand/flexspi_nand_flash.o
 .rodata.kFlexSpiAmbaBase
                0x00000000        0x8 ./source/drivers/flexspi_nand/flexspi_nand_flash.o
 .debug_info    0x00000000     0x2251 ./source/drivers/flexspi_nand/flexspi_nand_flash.o
 .debug_abbrev  0x00000000      0x483 ./source/drivers/flexspi_nand/flexspi_nand_flash.o
 .debug_loc     0x00000000      0xf0d ./source/drivers/flexspi_nand/flexspi_nand_flash.o
 .debug_aranges
                0x00000000       0x58 ./source/drivers/flexspi_nand/flexspi_nand_flash.o
 .debug_ranges  0x00000000      0x1d8 ./source/drivers/flexspi_nand/flexspi_nand_flash.o
 .debug_line    0x00000000      0xedf ./source/drivers/flexspi_nand/flexspi_nand_flash.o
 .debug_str     0x00000000     0x1ee6 ./source/drivers/flexspi_nand/flexspi_nand_flash.o
 .comment       0x00000000       0x7a ./source/drivers/flexspi_nand/flexspi_nand_flash.o
 .debug_frame   0x00000000      0x148 ./source/drivers/flexspi_nand/flexspi_nand_flash.o
 .ARM.attributes
                0x00000000       0x32 ./source/drivers/flexspi_nand/flexspi_nand_flash.o
 .text          0x00000000        0x0 ./source/drivers/flexspi/bl_flexspi.o
 .data          0x00000000        0x0 ./source/drivers/flexspi/bl_flexspi.o
 .bss           0x00000000        0x0 ./source/drivers/flexspi/bl_flexspi.o
 .text.flexspi_is_padsetting_override_enable
                0x00000000        0x8 ./source/drivers/flexspi/bl_flexspi.o
 .text.flexspi_is_differential_clock_enable
                0x00000000        0x8 ./source/drivers/flexspi/bl_flexspi.o
 .text.flexspi_is_word_addressable
                0x00000000        0x8 ./source/drivers/flexspi/bl_flexspi.o
 .text.flexspi_is_ck2_enabled
                0x00000000        0x8 ./source/drivers/flexspi/bl_flexspi.o
 .text.flexspi_is_ddr_mode_enable
                0x00000000        0x8 ./source/drivers/flexspi/bl_flexspi.o
 .text.flexspi_configure_dll
                0x00000000      0x12c ./source/drivers/flexspi/bl_flexspi.o
 .text.flexspi_get_ticks
                0x00000000       0x30 ./source/drivers/flexspi/bl_flexspi.o
 .text.flexspi_config_mcr1
                0x00000000       0x80 ./source/drivers/flexspi/bl_flexspi.o
 .text.flexspi_config_flash_control_registers
                0x00000000       0xc4 ./source/drivers/flexspi/bl_flexspi.o
 .text.flexspi_config_ahb_buffers
                0x00000000       0x54 ./source/drivers/flexspi/bl_flexspi.o
 .text.flexspi_device_write_enable
                0x00000000       0x58 ./source/drivers/flexspi/bl_flexspi.o
 .text.flexspi_wait_idle
                0x00000000       0x1c ./source/drivers/flexspi/bl_flexspi.o
 .text.flexspi_device_wait_busy
                0x00000000       0xf0 ./source/drivers/flexspi/bl_flexspi.o
 .text.flexspi_init
                0x00000000      0x310 ./source/drivers/flexspi/bl_flexspi.o
 .text.flexspi_clear_sequence_pointer
                0x00000000       0x2c ./source/drivers/flexspi/bl_flexspi.o
 .text.flexspi_half_clock_control
                0x00000000       0x34 ./source/drivers/flexspi/bl_flexspi.o
 .rodata.g_flexSpiInstances
                0x00000000        0xc ./source/drivers/flexspi/bl_flexspi.o
 .text          0x00000000        0x0 ./source/drivers/dcp/bl_dcp.o
 .data          0x00000000        0x0 ./source/drivers/dcp/bl_dcp.o
 .bss           0x00000000        0x0 ./source/drivers/dcp/bl_dcp.o
 .text.dcp_aes_ccm_auth_decrypt
                0x00000000       0x48 ./source/drivers/dcp/bl_dcp.o
 .text.dcp_aes_exit
                0x00000000       0x14 ./source/drivers/dcp/bl_dcp.o
 .text.dcp_aes_restore
                0x00000000       0x18 ./source/drivers/dcp/bl_dcp.o
 .text.dcp_exit
                0x00000000       0x14 ./source/drivers/dcp/bl_dcp.o
 .text          0x00000000        0x0 ./source/crc/crc16.o
 .data          0x00000000        0x0 ./source/crc/crc16.o
 .bss           0x00000000        0x0 ./source/crc/crc16.o
 .text.crc16_init
                0x00000000        0x6 ./source/crc/crc16.o
 .text.crc16_update
                0x00000000       0x2e ./source/crc/crc16.o
 .text.crc16_finalize
                0x00000000        0x6 ./source/crc/crc16.o
 .text.crc16_onfi_init
                0x00000000        0x8 ./source/crc/crc16.o
 .text.crc16_onfi_update
                0x00000000       0x2e ./source/crc/crc16.o
 .debug_info    0x00000000      0xbc2 ./source/crc/crc16.o
 .debug_abbrev  0x00000000      0x21c ./source/crc/crc16.o
 .debug_loc     0x00000000      0x284 ./source/crc/crc16.o
 .debug_aranges
                0x00000000       0x40 ./source/crc/crc16.o
 .debug_ranges  0x00000000       0x90 ./source/crc/crc16.o
 .debug_line    0x00000000      0x4fc ./source/crc/crc16.o
 .debug_str     0x00000000      0x703 ./source/crc/crc16.o
 .comment       0x00000000       0x7a ./source/crc/crc16.o
 .debug_frame   0x00000000       0x78 ./source/crc/crc16.o
 .ARM.attributes
                0x00000000       0x32 ./source/crc/crc16.o
 .text          0x00000000        0x0 ./source/crc/crc32.o
 .data          0x00000000        0x0 ./source/crc/crc32.o
 .bss           0x00000000        0x0 ./source/crc/crc32.o
 .text          0x00000000        0x0 ./source/bootloader/src/bl_app_crc_check.o
 .data          0x00000000        0x0 ./source/bootloader/src/bl_app_crc_check.o
 .bss           0x00000000        0x0 ./source/bootloader/src/bl_app_crc_check.o
 .text.init_crc_check_status
                0x00000000       0x2e ./source/bootloader/src/bl_app_crc_check.o
 .text.calculate_application_crc32
                0x00000000       0x4c ./source/bootloader/src/bl_app_crc_check.o
 .text.is_application_crc_check_pass
                0x00000000       0x80 ./source/bootloader/src/bl_app_crc_check.o
 .debug_info    0x00000000     0x1b7a ./source/bootloader/src/bl_app_crc_check.o
 .debug_abbrev  0x00000000      0x35d ./source/bootloader/src/bl_app_crc_check.o
 .debug_loc     0x00000000      0x1a2 ./source/bootloader/src/bl_app_crc_check.o
 .debug_aranges
                0x00000000       0x30 ./source/bootloader/src/bl_app_crc_check.o
 .debug_ranges  0x00000000       0x50 ./source/bootloader/src/bl_app_crc_check.o
 .debug_line    0x00000000      0x6b2 ./source/bootloader/src/bl_app_crc_check.o
 .debug_str     0x00000000     0x14da ./source/bootloader/src/bl_app_crc_check.o
 .comment       0x00000000       0x7a ./source/bootloader/src/bl_app_crc_check.o
 .debug_frame   0x00000000       0x60 ./source/bootloader/src/bl_app_crc_check.o
 .ARM.attributes
                0x00000000       0x32 ./source/bootloader/src/bl_app_crc_check.o
 .text          0x00000000        0x0 ./source/bootloader/src/bl_command.o
 .data          0x00000000        0x0 ./source/bootloader/src/bl_command.o
 .bss           0x00000000        0x0 ./source/bootloader/src/bl_command.o
 .text.handle_flash_erase_all_unsecure
                0x00000000        0x8 ./source/bootloader/src/bl_command.o
 .text.handle_data_bidirection
                0x00000000       0x24 ./source/bootloader/src/bl_command.o
 .text.send_flash_read_resource_response
                0x00000000       0x28 ./source/bootloader/src/bl_command.o
 .text.handle_flash_read_resource
                0x00000000       0x30 ./source/bootloader/src/bl_command.o
 .text          0x00000000        0x0 ./source/bootloader/src/bl_context.o
 .data          0x00000000        0x0 ./source/bootloader/src/bl_context.o
 .bss           0x00000000        0x0 ./source/bootloader/src/bl_context.o
 .text          0x00000000        0x0 ./source/bootloader/src/bl_exception_handler.o
 .data          0x00000000        0x0 ./source/bootloader/src/bl_exception_handler.o
 .bss           0x00000000        0x0 ./source/bootloader/src/bl_exception_handler.o
 .text          0x00000000        0x0 ./source/bootloader/src/bl_keyblob.o
 .data          0x00000000        0x0 ./source/bootloader/src/bl_keyblob.o
 .bss           0x00000000        0x0 ./source/bootloader/src/bl_keyblob.o
 .text.keyblob_update
                0x00000000       0x64 ./source/bootloader/src/bl_keyblob.o
 .text.keyblob_get
                0x00000000       0x38 ./source/bootloader/src/bl_keyblob.o
 .bss.s_keyblob_context
                0x00000000      0x22c ./source/bootloader/src/bl_keyblob.o
 .debug_info    0x00000000     0x21c6 ./source/bootloader/src/bl_keyblob.o
 .debug_abbrev  0x00000000      0x307 ./source/bootloader/src/bl_keyblob.o
 .debug_loc     0x00000000      0x167 ./source/bootloader/src/bl_keyblob.o
 .debug_aranges
                0x00000000       0x28 ./source/bootloader/src/bl_keyblob.o
 .debug_ranges  0x00000000       0x38 ./source/bootloader/src/bl_keyblob.o
 .debug_line    0x00000000      0x69e ./source/bootloader/src/bl_keyblob.o
 .debug_str     0x00000000     0x273d ./source/bootloader/src/bl_keyblob.o
 .comment       0x00000000       0x7a ./source/bootloader/src/bl_keyblob.o
 .debug_frame   0x00000000       0x50 ./source/bootloader/src/bl_keyblob.o
 .ARM.attributes
                0x00000000       0x32 ./source/bootloader/src/bl_keyblob.o
 .text          0x00000000        0x0 ./source/bootloader/src/bl_keyblob_dcp.o
 .data          0x00000000        0x0 ./source/bootloader/src/bl_keyblob_dcp.o
 .bss           0x00000000        0x0 ./source/bootloader/src/bl_keyblob_dcp.o
 .text          0x00000000        0x0 ./source/bootloader/src/bl_main.o
 .data          0x00000000        0x0 ./source/bootloader/src/bl_main.o
 .bss           0x00000000        0x0 ./source/bootloader/src/bl_main.o
 .text.exit     0x00000000        0x2 ./source/bootloader/src/bl_main.o
 .text          0x00000000        0x0 ./source/bootloader/src/bl_misc.o
 .data          0x00000000        0x0 ./source/bootloader/src/bl_misc.o
 .bss           0x00000000        0x0 ./source/bootloader/src/bl_misc.o
 .text.qspi_need_configure
                0x00000000        0x4 ./source/bootloader/src/bl_misc.o
 .text.is_qspi_present
                0x00000000        0x4 ./source/bootloader/src/bl_misc.o
 .text.is_otfad_present
                0x00000000        0x4 ./source/bootloader/src/bl_misc.o
 .text.is_ltc_present
                0x00000000        0x4 ./source/bootloader/src/bl_misc.o
 .text.is_flexspi_nor_present
                0x00000000        0x4 ./source/bootloader/src/bl_misc.o
 .text.is_semc_nor_present
                0x00000000        0x4 ./source/bootloader/src/bl_misc.o
 .text.is_in_execute_only_region
                0x00000000        0x4 ./source/bootloader/src/bl_misc.o
 .debug_info    0x00000000     0x1a49 ./source/bootloader/src/bl_misc.o
 .debug_abbrev  0x00000000      0x290 ./source/bootloader/src/bl_misc.o
 .debug_loc     0x00000000       0x25 ./source/bootloader/src/bl_misc.o
 .debug_aranges
                0x00000000       0x30 ./source/bootloader/src/bl_misc.o
 .debug_ranges  0x00000000       0x20 ./source/bootloader/src/bl_misc.o
 .debug_line    0x00000000      0x539 ./source/bootloader/src/bl_misc.o
 .debug_str     0x00000000     0x1574 ./source/bootloader/src/bl_misc.o
 .comment       0x00000000       0x7a ./source/bootloader/src/bl_misc.o
 .debug_frame   0x00000000       0x80 ./source/bootloader/src/bl_misc.o
 .ARM.attributes
                0x00000000       0x32 ./source/bootloader/src/bl_misc.o
 .text          0x00000000        0x0 ./source/bootloader/src/bl_nor_encrypt_bee.o
 .data          0x00000000        0x0 ./source/bootloader/src/bl_nor_encrypt_bee.o
 .bss           0x00000000        0x0 ./source/bootloader/src/bl_nor_encrypt_bee.o
 .text.bl_nor_encrypt_has_encrypted_region
                0x00000000       0x30 ./source/bootloader/src/bl_nor_encrypt_bee.o
 .text.bl_nor_encrypt_region_info_valid
                0x00000000       0x12 ./source/bootloader/src/bl_nor_encrypt_bee.o
 .text.bl_nor_encrypt_init
                0x00000000      0x220 ./source/bootloader/src/bl_nor_encrypt_bee.o
 .text.bl_nor_in_encrypted_region
                0x00000000       0x60 ./source/bootloader/src/bl_nor_encrypt_bee.o
 .text.bl_nor_encrypt_get_config_block
                0x00000000       0xa0 ./source/bootloader/src/bl_nor_encrypt_bee.o
 .text.bl_nor_encrypt_data
                0x00000000       0xc0 ./source/bootloader/src/bl_nor_encrypt_bee.o
 .text.bl_nor_encrypt_region_refresh
                0x00000000       0x70 ./source/bootloader/src/bl_nor_encrypt_bee.o
 .bss.s_img_gen_ctx
                0x00000000      0x614 ./source/bootloader/src/bl_nor_encrypt_bee.o
 .debug_info    0x00000000     0x3213 ./source/bootloader/src/bl_nor_encrypt_bee.o
 .debug_abbrev  0x00000000      0x505 ./source/bootloader/src/bl_nor_encrypt_bee.o
 .debug_loc     0x00000000      0xa8b ./source/bootloader/src/bl_nor_encrypt_bee.o
 .debug_aranges
                0x00000000       0x50 ./source/bootloader/src/bl_nor_encrypt_bee.o
 .debug_ranges  0x00000000      0x228 ./source/bootloader/src/bl_nor_encrypt_bee.o
 .debug_line    0x00000000      0xc6b ./source/bootloader/src/bl_nor_encrypt_bee.o
 .debug_str     0x00000000     0x2e7b ./source/bootloader/src/bl_nor_encrypt_bee.o
 .comment       0x00000000       0x7a ./source/bootloader/src/bl_nor_encrypt_bee.o
 .debug_frame   0x00000000      0x10c ./source/bootloader/src/bl_nor_encrypt_bee.o
 .ARM.attributes
                0x00000000       0x32 ./source/bootloader/src/bl_nor_encrypt_bee.o
 .text          0x00000000        0x0 ./source/bootloader/src/bl_reliable_update_common.o
 .data          0x00000000        0x0 ./source/bootloader/src/bl_reliable_update_common.o
 .bss           0x00000000        0x0 ./source/bootloader/src/bl_reliable_update_common.o
 .rodata.str1.1
                0x00000000       0x52 ./source/bootloader/src/bl_reliable_update_common.o
 .text.get_update_partition
                0x00000000        0x8 ./source/bootloader/src/bl_reliable_update_common.o
 .text.get_active_partition
                0x00000000        0x8 ./source/bootloader/src/bl_reliable_update_common.o
 .text.update_boot_meta
                0x00000000       0x98 ./source/bootloader/src/bl_reliable_update_common.o
 .text.show_boot_meta_info
                0x00000000        0x2 ./source/bootloader/src/bl_reliable_update_common.o
 .text.show_swap_meta_info
                0x00000000        0x2 ./source/bootloader/src/bl_reliable_update_common.o
 .text          0x00000000        0x0 ./source/bootloader/src/bl_shutdown_cleanup.o
 .data          0x00000000        0x0 ./source/bootloader/src/bl_shutdown_cleanup.o
 .bss           0x00000000        0x0 ./source/bootloader/src/bl_shutdown_cleanup.o
 .text          0x00000000        0x0 ./source/bootloader/src/bl_tree_root.o
 .data          0x00000000        0x0 ./source/bootloader/src/bl_tree_root.o
 .bss           0x00000000        0x0 ./source/bootloader/src/bl_tree_root.o
 .rodata.bootloaderCopyright
                0x00000000       0x4b ./source/bootloader/src/bl_tree_root.o
 .rodata.g_aesInterface
                0x00000000        0xc ./source/bootloader/src/bl_tree_root.o
 .rodata.g_bootloaderTree
                0x00000000       0x14 ./source/bootloader/src/bl_tree_root.o
 .debug_info    0x00000000     0x1f2f ./source/bootloader/src/bl_tree_root.o
 .debug_abbrev  0x00000000      0x21b ./source/bootloader/src/bl_tree_root.o
 .debug_aranges
                0x00000000       0x18 ./source/bootloader/src/bl_tree_root.o
 .debug_line    0x00000000      0x572 ./source/bootloader/src/bl_tree_root.o
 .debug_str     0x00000000     0x2560 ./source/bootloader/src/bl_tree_root.o
 .comment       0x00000000       0x7a ./source/bootloader/src/bl_tree_root.o
 .ARM.attributes
                0x00000000       0x37 ./source/bootloader/src/bl_tree_root.o
 .text          0x00000000        0x0 ./source/bootloader/src/bl_user_entry.o
 .data          0x00000000        0x0 ./source/bootloader/src/bl_user_entry.o
 .bss           0x00000000        0x0 ./source/bootloader/src/bl_user_entry.o
 .text.bootloader_user_entry
                0x00000000        0x4 ./source/bootloader/src/bl_user_entry.o
 .debug_info    0x00000000      0x9b4 ./source/bootloader/src/bl_user_entry.o
 .debug_abbrev  0x00000000      0x1cf ./source/bootloader/src/bl_user_entry.o
 .debug_loc     0x00000000       0x25 ./source/bootloader/src/bl_user_entry.o
 .debug_aranges
                0x00000000       0x20 ./source/bootloader/src/bl_user_entry.o
 .debug_ranges  0x00000000       0x10 ./source/bootloader/src/bl_user_entry.o
 .debug_line    0x00000000      0x39b ./source/bootloader/src/bl_user_entry.o
 .debug_str     0x00000000      0x68a ./source/bootloader/src/bl_user_entry.o
 .comment       0x00000000       0x7a ./source/bootloader/src/bl_user_entry.o
 .debug_frame   0x00000000       0x20 ./source/bootloader/src/bl_user_entry.o
 .ARM.attributes
                0x00000000       0x32 ./source/bootloader/src/bl_user_entry.o
 .text          0x00000000        0x0 ./source/bootloader/src/lpuart_peripheral_interface.o
 .data          0x00000000        0x0 ./source/bootloader/src/lpuart_peripheral_interface.o
 .bss           0x00000000        0x0 ./source/bootloader/src/lpuart_peripheral_interface.o
 .text.lpuart_full_shutdown
                0x00000000       0x3c ./source/bootloader/src/lpuart_peripheral_interface.o
 .text.lpuart_full_init
                0x00000000       0x20 ./source/bootloader/src/lpuart_peripheral_interface.o
 .text.lpuart_poll_for_activity
                0x00000000       0x90 ./source/bootloader/src/lpuart_peripheral_interface.o
 .text.lpuart_write
                0x00000000       0x18 ./source/bootloader/src/lpuart_peripheral_interface.o
 .bss.g_lpuartInitStatus
                0x00000000        0x8 ./source/bootloader/src/lpuart_peripheral_interface.o
 .rodata.g_lpuartBaseAddr
                0x00000000       0x24 ./source/bootloader/src/lpuart_peripheral_interface.o
 .rodata.g_lpuartByteInterface
                0x00000000        0x8 ./source/bootloader/src/lpuart_peripheral_interface.o
 .rodata.g_lpuartControlInterface
                0x00000000       0x10 ./source/bootloader/src/lpuart_peripheral_interface.o
 .text          0x00000000        0x0 ./source/bootloader/src/usb_hid_msc_peripheral_interface.o
 .data          0x00000000        0x0 ./source/bootloader/src/usb_hid_msc_peripheral_interface.o
 .bss           0x00000000        0x0 ./source/bootloader/src/usb_hid_msc_peripheral_interface.o
 .text          0x00000000        0x0 ./source/autobaud/autobaud_irq.o
 .data          0x00000000        0x0 ./source/autobaud/autobaud_irq.o
 .bss           0x00000000        0x0 ./source/autobaud/autobaud_irq.o
 .text.instance_transition_callback
                0x00000000       0xdc ./source/autobaud/autobaud_irq.o
 .text.autobaud_init
                0x00000000       0x5c ./source/autobaud/autobaud_irq.o
 .text.autobaud_deinit
                0x00000000        0x4 ./source/autobaud/autobaud_irq.o
 .text.autobaud_get_rate
                0x00000000       0xc8 ./source/autobaud/autobaud_irq.o
 .bss.s_firstByteTotalTicks
                0x00000000        0x8 ./source/autobaud/autobaud_irq.o
 .bss.s_instanceMeasured
                0x00000000        0x4 ./source/autobaud/autobaud_irq.o
 .bss.s_intervalFallingEdgesFirstByte
                0x00000000        0xc ./source/autobaud/autobaud_irq.o
 .bss.s_intervalFallingEdgesSecondByte
                0x00000000        0x8 ./source/autobaud/autobaud_irq.o
 .bss.s_lastToggleTicks
                0x00000000        0x8 ./source/autobaud/autobaud_irq.o
 .bss.s_secondByteTotalTicks
                0x00000000        0x8 ./source/autobaud/autobaud_irq.o
 .bss.s_ticksAtFirstFallingEdge
                0x00000000        0x8 ./source/autobaud/autobaud_irq.o
 .bss.s_ticksBetweenFailure
                0x00000000        0x8 ./source/autobaud/autobaud_irq.o
 .bss.s_ticksFallingEdges
                0x00000000       0x1c ./source/autobaud/autobaud_irq.o
 .bss.s_transitionCount
                0x00000000        0x4 ./source/autobaud/autobaud_irq.o
 .debug_info    0x00000000      0xfa9 ./source/autobaud/autobaud_irq.o
 .debug_abbrev  0x00000000      0x2fd ./source/autobaud/autobaud_irq.o
 .debug_loc     0x00000000      0x317 ./source/autobaud/autobaud_irq.o
 .debug_aranges
                0x00000000       0x38 ./source/autobaud/autobaud_irq.o
 .debug_ranges  0x00000000       0x80 ./source/autobaud/autobaud_irq.o
 .debug_line    0x00000000      0x66b ./source/autobaud/autobaud_irq.o
 .debug_str     0x00000000     0x11c9 ./source/autobaud/autobaud_irq.o
 .comment       0x00000000       0x7a ./source/autobaud/autobaud_irq.o
 .debug_frame   0x00000000       0x84 ./source/autobaud/autobaud_irq.o
 .ARM.attributes
                0x00000000       0x32 ./source/autobaud/autobaud_irq.o
 .text          0x00000000        0x0 ./source/semihost_hardfault.o
 .data          0x00000000        0x0 ./source/semihost_hardfault.o
 .bss           0x00000000        0x0 ./source/semihost_hardfault.o
 .debug_line    0x00000000        0x0 ./source/semihost_hardfault.o
 .debug_str     0x00000000      0x163 ./source/semihost_hardfault.o
 .comment       0x00000000       0x7a ./source/semihost_hardfault.o
 .ARM.attributes
                0x00000000       0x37 ./source/semihost_hardfault.o
 .text          0x00000000        0x0 ./drivers/fsl_clock.o
 .data          0x00000000        0x0 ./drivers/fsl_clock.o
 .bss           0x00000000        0x0 ./drivers/fsl_clock.o
 .text.CLOCK_GetOscFreq
                0x00000000       0x20 ./drivers/fsl_clock.o
 .text.CLOCK_InitExternalClk
                0x00000000       0x30 ./drivers/fsl_clock.o
 .text.CLOCK_DeinitExternalClk
                0x00000000       0x10 ./drivers/fsl_clock.o
 .text.CLOCK_SwitchOsc
                0x00000000       0x18 ./drivers/fsl_clock.o
 .text.CLOCK_InitRcOsc24M
                0x00000000       0x14 ./drivers/fsl_clock.o
 .text.CLOCK_DeinitRcOsc24M
                0x00000000       0x14 ./drivers/fsl_clock.o
 .text.CLOCK_EnableUsbhs0Clock
                0x00000000       0x50 ./drivers/fsl_clock.o
 .text.CLOCK_EnableUsbhs1Clock
                0x00000000       0x54 ./drivers/fsl_clock.o
 .text.CLOCK_DisableUsbhs0PhyPllClock
                0x00000000       0x1c ./drivers/fsl_clock.o
 .text.CLOCK_InitArmPll
                0x00000000       0x44 ./drivers/fsl_clock.o
 .text.CLOCK_DeinitArmPll
                0x00000000       0x10 ./drivers/fsl_clock.o
 .text.CLOCK_InitSysPll
                0x00000000       0x68 ./drivers/fsl_clock.o
 .text.CLOCK_DeinitSysPll
                0x00000000       0x10 ./drivers/fsl_clock.o
 .text.CLOCK_InitUsb1Pll
                0x00000000       0x44 ./drivers/fsl_clock.o
 .text.CLOCK_EnableUsbhs0PhyPllClock
                0x00000000       0x50 ./drivers/fsl_clock.o
 .text.CLOCK_DeinitUsb1Pll
                0x00000000        0xc ./drivers/fsl_clock.o
 .text.CLOCK_InitUsb2Pll
                0x00000000       0x44 ./drivers/fsl_clock.o
 .text.CLOCK_DeinitUsb2Pll
                0x00000000        0xc ./drivers/fsl_clock.o
 .text.CLOCK_InitAudioPll
                0x00000000       0xa0 ./drivers/fsl_clock.o
 .text.CLOCK_DeinitAudioPll
                0x00000000       0x10 ./drivers/fsl_clock.o
 .text.CLOCK_InitVideoPll
                0x00000000       0xa8 ./drivers/fsl_clock.o
 .text.CLOCK_DeinitVideoPll
                0x00000000       0x10 ./drivers/fsl_clock.o
 .text.CLOCK_InitEnetPll
                0x00000000       0x74 ./drivers/fsl_clock.o
 .text.CLOCK_DeinitEnetPll
                0x00000000       0x10 ./drivers/fsl_clock.o
 .text.CLOCK_GetPllFreq
                0x00000000      0x208 ./drivers/fsl_clock.o
 .text.CLOCK_InitSysPfd
                0x00000000       0x30 ./drivers/fsl_clock.o
 .text.CLOCK_DeinitSysPfd
                0x00000000       0x1c ./drivers/fsl_clock.o
 .text.CLOCK_InitUsb1Pfd
                0x00000000       0x30 ./drivers/fsl_clock.o
 .text.CLOCK_DeinitUsb1Pfd
                0x00000000       0x1c ./drivers/fsl_clock.o
 .text.CLOCK_GetSysPfdFreq
                0x00000000       0x5c ./drivers/fsl_clock.o
 .text.CLOCK_GetPeriphClkFreq
                0x00000000       0x90 ./drivers/fsl_clock.o
 .text.CLOCK_GetAhbFreq
                0x00000000       0x1c ./drivers/fsl_clock.o
 .text.CLOCK_GetIpgFreq
                0x00000000       0x1c ./drivers/fsl_clock.o
 .text.CLOCK_GetPerClkFreq
                0x00000000       0x28 ./drivers/fsl_clock.o
 .text.CLOCK_GetUsb1PfdFreq
                0x00000000       0x5c ./drivers/fsl_clock.o
 .text.CLOCK_GetSemcFreq
                0x00000000       0x38 ./drivers/fsl_clock.o
 .text.CLOCK_GetFreq
                0x00000000       0xa8 ./drivers/fsl_clock.o
 .text.CLOCK_EnableUsbhs1PhyPllClock
                0x00000000       0x34 ./drivers/fsl_clock.o
 .text.CLOCK_DisableUsbhs1PhyPllClock
                0x00000000       0x1c ./drivers/fsl_clock.o
 .rodata        0x00000000       0x10 ./drivers/fsl_clock.o
 .bss.g_rtcXtalFreq
                0x00000000        0x4 ./drivers/fsl_clock.o
 .text          0x00000000        0x0 ./drivers/fsl_common.o
 .data          0x00000000        0x0 ./drivers/fsl_common.o
 .bss           0x00000000        0x0 ./drivers/fsl_common.o
 .text.SDK_Malloc
                0x00000000       0x2e ./drivers/fsl_common.o
 .text.SDK_Free
                0x00000000       0x18 ./drivers/fsl_common.o
 .text.SDK_DelayAtLeastUs
                0x00000000       0x20 ./drivers/fsl_common.o
 .debug_info    0x00000000      0xbb8 ./drivers/fsl_common.o
 .debug_abbrev  0x00000000      0x2aa ./drivers/fsl_common.o
 .debug_loc     0x00000000      0x292 ./drivers/fsl_common.o
 .debug_aranges
                0x00000000       0x30 ./drivers/fsl_common.o
 .debug_ranges  0x00000000       0x38 ./drivers/fsl_common.o
 .debug_line    0x00000000      0x39c ./drivers/fsl_common.o
 .debug_str     0x00000000      0x75a ./drivers/fsl_common.o
 .comment       0x00000000       0x7a ./drivers/fsl_common.o
 .debug_frame   0x00000000       0x54 ./drivers/fsl_common.o
 .ARM.attributes
                0x00000000       0x32 ./drivers/fsl_common.o
 .text          0x00000000        0x0 ./drivers/fsl_gpio.o
 .data          0x00000000        0x0 ./drivers/fsl_gpio.o
 .bss           0x00000000        0x0 ./drivers/fsl_gpio.o
 .text.GPIO_PinWrite
                0x00000000       0x16 ./drivers/fsl_gpio.o
 .text.GPIO_PinSetInterruptConfig
                0x00000000       0x7c ./drivers/fsl_gpio.o
 .text.GPIO_PinInit
                0x00000000       0x80 ./drivers/fsl_gpio.o
 .rodata.s_gpioBases
                0x00000000       0x28 ./drivers/fsl_gpio.o
 .rodata.s_gpioClock
                0x00000000        0xc ./drivers/fsl_gpio.o
 .debug_info    0x00000000     0x16c3 ./drivers/fsl_gpio.o
 .debug_abbrev  0x00000000      0x396 ./drivers/fsl_gpio.o
 .debug_loc     0x00000000      0x4a2 ./drivers/fsl_gpio.o
 .debug_aranges
                0x00000000       0x30 ./drivers/fsl_gpio.o
 .debug_ranges  0x00000000       0x90 ./drivers/fsl_gpio.o
 .debug_line    0x00000000      0x4f8 ./drivers/fsl_gpio.o
 .debug_str     0x00000000     0x1880 ./drivers/fsl_gpio.o
 .comment       0x00000000       0x7a ./drivers/fsl_gpio.o
 .debug_frame   0x00000000       0x64 ./drivers/fsl_gpio.o
 .ARM.attributes
                0x00000000       0x32 ./drivers/fsl_gpio.o
 .text          0x00000000        0x0 ./drivers/fsl_lpspi.o
 .data          0x00000000        0x0 ./drivers/fsl_lpspi.o
 .bss           0x00000000        0x0 ./drivers/fsl_lpspi.o
 .text.CLOCK_ControlGate
                0x00000000       0x24 ./drivers/fsl_lpspi.o
 .text.EnableIRQ
                0x00000000       0x28 ./drivers/fsl_lpspi.o
 .text.LPSPI_MasterTransferComplete
                0x00000000       0x28 ./drivers/fsl_lpspi.o
 .text.LPSPI_SlaveTransferComplete
                0x00000000       0x36 ./drivers/fsl_lpspi.o
 .text.LPSPI_CombineWriteData
                0x00000000       0x48 ./drivers/fsl_lpspi.o
 .text.LPSPI_MasterTransferFillUpTxFifo
                0x00000000       0x8e ./drivers/fsl_lpspi.o
 .text.LPSPI_SlaveTransferFillUpTxFifo
                0x00000000       0x48 ./drivers/fsl_lpspi.o
 .text.LPSPI_SeparateReadData
                0x00000000       0x66 ./drivers/fsl_lpspi.o
 .text.LPSPI_MasterTransferHandleIRQ
                0x00000000       0xfe ./drivers/fsl_lpspi.o
 .text.LPSPI_SlaveTransferHandleIRQ
                0x00000000      0x14c ./drivers/fsl_lpspi.o
 .text.LPSPI_GetInstance
                0x00000000       0x38 ./drivers/fsl_lpspi.o
 .text.LPSPI_SetDummyData
                0x00000000       0x10 ./drivers/fsl_lpspi.o
 .text.LPSPI_MasterGetDefaultConfig
                0x00000000       0x2c ./drivers/fsl_lpspi.o
 .text.LPSPI_SlaveInit
                0x00000000       0x90 ./drivers/fsl_lpspi.o
 .text.LPSPI_SlaveGetDefaultConfig
                0x00000000       0x1a ./drivers/fsl_lpspi.o
 .text.LPSPI_Reset
                0x00000000       0x16 ./drivers/fsl_lpspi.o
 .text.LPSPI_Deinit
                0x00000000       0x20 ./drivers/fsl_lpspi.o
 .text.LPSPI_MasterSetBaudRate
                0x00000000       0x88 ./drivers/fsl_lpspi.o
 .text.LPSPI_MasterSetDelayScaler
                0x00000000       0x36 ./drivers/fsl_lpspi.o
 .text.LPSPI_MasterSetDelayTimes
                0x00000000      0x10c ./drivers/fsl_lpspi.o
 .text.LPSPI_MasterInit
                0x00000000       0xe8 ./drivers/fsl_lpspi.o
 .text.LPSPI_MasterTransferCreateHandle
                0x00000000       0x38 ./drivers/fsl_lpspi.o
 .text.LPSPI_CheckTransferArgument
                0x00000000       0x40 ./drivers/fsl_lpspi.o
 .text.LPSPI_MasterTransferBlocking
                0x00000000      0x1cc ./drivers/fsl_lpspi.o
 .text.LPSPI_MasterTransferNonBlocking
                0x00000000      0x1cc ./drivers/fsl_lpspi.o
 .text.LPSPI_MasterTransferGetCount
                0x00000000       0x2a ./drivers/fsl_lpspi.o
 .text.LPSPI_MasterTransferAbort
                0x00000000       0x1e ./drivers/fsl_lpspi.o
 .text.LPSPI_SlaveTransferCreateHandle
                0x00000000       0x38 ./drivers/fsl_lpspi.o
 .text.LPSPI_SlaveTransferNonBlocking
                0x00000000      0x1c8 ./drivers/fsl_lpspi.o
 .text.LPSPI_SlaveTransferGetCount
                0x00000000       0x2a ./drivers/fsl_lpspi.o
 .text.LPSPI_SlaveTransferAbort
                0x00000000       0x1a ./drivers/fsl_lpspi.o
 .bss.g_lpspiDummyData
                0x00000000        0x5 ./drivers/fsl_lpspi.o
 .rodata.s_baudratePrescaler
                0x00000000        0x8 ./drivers/fsl_lpspi.o
 .rodata.s_lpspiClocks
                0x00000000        0xa ./drivers/fsl_lpspi.o
 .rodata.s_lpspiIRQ
                0x00000000        0xa ./drivers/fsl_lpspi.o
 .text          0x00000000        0x0 ./drivers/fsl_lpuart.o
 .data          0x00000000        0x0 ./drivers/fsl_lpuart.o
 .bss           0x00000000        0x0 ./drivers/fsl_lpuart.o
 .text.CLOCK_ControlGate
                0x00000000       0x24 ./drivers/fsl_lpuart.o
 .text.LPUART_ReadNonBlocking
                0x00000000       0x2c ./drivers/fsl_lpuart.o
 .text.LPUART_GetInstance
                0x00000000       0x1c ./drivers/fsl_lpuart.o
 .text.LPUART_TransferGetRxRingBufferLength
                0x00000000       0x14 ./drivers/fsl_lpuart.o
 .text.LPUART_Init
                0x00000000      0x19c ./drivers/fsl_lpuart.o
 .text.LPUART_Deinit
                0x00000000       0x38 ./drivers/fsl_lpuart.o
 .text.LPUART_GetDefaultConfig
                0x00000000       0x1e ./drivers/fsl_lpuart.o
 .text.LPUART_SetBaudRate
                0x00000000       0x9e ./drivers/fsl_lpuart.o
 .text.LPUART_EnableInterrupts
                0x00000000       0x28 ./drivers/fsl_lpuart.o
 .text.LPUART_DisableInterrupts
                0x00000000       0x2e ./drivers/fsl_lpuart.o
 .text.LPUART_GetEnabledInterrupts
                0x00000000       0x26 ./drivers/fsl_lpuart.o
 .text.LPUART_TransferHandleIRQ
                0x00000000      0x27c ./drivers/fsl_lpuart.o
 .text.LPUART_ClearStatusFlags
                0x00000000       0x48 ./drivers/fsl_lpuart.o
 .text.LPUART_WriteBlocking
                0x00000000       0x1e ./drivers/fsl_lpuart.o
 .text.LPUART_ReadBlocking
                0x00000000       0xca ./drivers/fsl_lpuart.o
 .text.LPUART_TransferCreateHandle
                0x00000000       0x84 ./drivers/fsl_lpuart.o
 .text.LPUART_TransferStartRingBuffer
                0x00000000       0x12 ./drivers/fsl_lpuart.o
 .text.LPUART_TransferStopRingBuffer
                0x00000000       0x20 ./drivers/fsl_lpuart.o
 .text.LPUART_TransferSendNonBlocking
                0x00000000       0x2c ./drivers/fsl_lpuart.o
 .text.LPUART_TransferAbortSend
                0x00000000       0x16 ./drivers/fsl_lpuart.o
 .text.LPUART_TransferGetSendCount
                0x00000000       0x20 ./drivers/fsl_lpuart.o
 .text.LPUART_TransferReceiveNonBlocking
                0x00000000       0xc4 ./drivers/fsl_lpuart.o
 .text.LPUART_TransferAbortReceive
                0x00000000       0x1c ./drivers/fsl_lpuart.o
 .text.LPUART_TransferGetReceiveCount
                0x00000000       0x18 ./drivers/fsl_lpuart.o
 .text.LPUART_TransferHandleErrorIRQ
                0x00000000        0x2 ./drivers/fsl_lpuart.o
 .rodata.s_lpuartBases
                0x00000000       0x24 ./drivers/fsl_lpuart.o
 .rodata.s_lpuartClock
                0x00000000       0x12 ./drivers/fsl_lpuart.o
 .rodata.s_lpuartIRQ
                0x00000000       0x12 ./drivers/fsl_lpuart.o
 .text          0x00000000        0x0 ./device/system_MIMXRT1062.o
 .data          0x00000000        0x0 ./device/system_MIMXRT1062.o
 .bss           0x00000000        0x0 ./device/system_MIMXRT1062.o
 .text.SystemCoreClockUpdate
                0x00000000        0x2 ./device/system_MIMXRT1062.o
 .text          0x00000000        0x0 ./component/osa/fsl_os_abstraction_bm.o
 .data          0x00000000        0x0 ./component/osa/fsl_os_abstraction_bm.o
 .bss           0x00000000        0x0 ./component/osa/fsl_os_abstraction_bm.o
 .text.main_task
                0x00000000        0x2 ./component/osa/fsl_os_abstraction_bm.o
 .text.OSA_MemoryAllocate
                0x00000000       0x1a ./component/osa/fsl_os_abstraction_bm.o
 .text.OSA_MemoryFree
                0x00000000        0x4 ./component/osa/fsl_os_abstraction_bm.o
 .text.OSA_EnableIRQGlobal
                0x00000000       0x18 ./component/osa/fsl_os_abstraction_bm.o
 .text.OSA_DisableIRQGlobal
                0x00000000       0x10 ./component/osa/fsl_os_abstraction_bm.o
 .text.OSA_TimeInit
                0x00000000        0x2 ./component/osa/fsl_os_abstraction_bm.o
 .text.OSA_TimeDiff
                0x00000000        0x4 ./component/osa/fsl_os_abstraction_bm.o
 .text.OSA_TimeDelay
                0x00000000        0x2 ./component/osa/fsl_os_abstraction_bm.o
 .text.OSA_TimeGetMsec
                0x00000000        0x4 ./component/osa/fsl_os_abstraction_bm.o
 .text.OSA_SemaphoreCreate
                0x00000000       0x10 ./component/osa/fsl_os_abstraction_bm.o
 .text.OSA_SemaphoreDestroy
                0x00000000        0xe ./component/osa/fsl_os_abstraction_bm.o
 .text.OSA_SemaphoreWait
                0x00000000       0x38 ./component/osa/fsl_os_abstraction_bm.o
 .text.OSA_SemaphorePost
                0x00000000       0x2c ./component/osa/fsl_os_abstraction_bm.o
 .text.OSA_MutexCreate
                0x00000000        0xe ./component/osa/fsl_os_abstraction_bm.o
 .text.OSA_MutexLock
                0x00000000       0x36 ./component/osa/fsl_os_abstraction_bm.o
 .text.OSA_MutexUnlock
                0x00000000       0x1a ./component/osa/fsl_os_abstraction_bm.o
 .text.OSA_MutexDestroy
                0x00000000        0x4 ./component/osa/fsl_os_abstraction_bm.o
 .text.OSA_EventCreate
                0x00000000       0x10 ./component/osa/fsl_os_abstraction_bm.o
 .text.OSA_EventSet
                0x00000000       0x1e ./component/osa/fsl_os_abstraction_bm.o
 .text.OSA_EventClear
                0x00000000       0x22 ./component/osa/fsl_os_abstraction_bm.o
 .text.OSA_EventGet
                0x00000000       0x24 ./component/osa/fsl_os_abstraction_bm.o
 .text.OSA_EventWait
                0x00000000       0x50 ./component/osa/fsl_os_abstraction_bm.o
 .text.OSA_EventDestroy
                0x00000000        0xe ./component/osa/fsl_os_abstraction_bm.o
 .text.OSA_MsgQCreate
                0x00000000       0x14 ./component/osa/fsl_os_abstraction_bm.o
 .text.OSA_MsgQPut
                0x00000000       0x60 ./component/osa/fsl_os_abstraction_bm.o
 .text.OSA_MsgQGet
                0x00000000       0x62 ./component/osa/fsl_os_abstraction_bm.o
 .text.OSA_MsgQDestroy
                0x00000000        0xe ./component/osa/fsl_os_abstraction_bm.o
 .text.OSA_InterruptEnable
                0x00000000        0x4 ./component/osa/fsl_os_abstraction_bm.o
 .text.OSA_InterruptDisable
                0x00000000        0x4 ./component/osa/fsl_os_abstraction_bm.o
 .text.OSA_InstallIntHandler
                0x00000000        0x2 ./component/osa/fsl_os_abstraction_bm.o
 .bss.s_osaState
                0x00000000        0x8 ./component/osa/fsl_os_abstraction_bm.o
 .rodata.gUseRtos_c
                0x00000000        0x1 ./component/osa/fsl_os_abstraction_bm.o
 .text          0x00000000        0x0 ./component/lists/generic_list.o
 .data          0x00000000        0x0 ./component/lists/generic_list.o
 .bss           0x00000000        0x0 ./component/lists/generic_list.o
 .text.LIST_Error_Check
                0x00000000       0x26 ./component/lists/generic_list.o
 .text.LIST_Init
                0x00000000        0xc ./component/lists/generic_list.o
 .text.LIST_GetList
                0x00000000        0x4 ./component/lists/generic_list.o
 .text.LIST_AddTail
                0x00000000       0x32 ./component/lists/generic_list.o
 .text.LIST_AddHead
                0x00000000       0x32 ./component/lists/generic_list.o
 .text.LIST_RemoveHead
                0x00000000       0x32 ./component/lists/generic_list.o
 .text.LIST_GetHead
                0x00000000        0x4 ./component/lists/generic_list.o
 .text.LIST_GetNext
                0x00000000        0x4 ./component/lists/generic_list.o
 .text.LIST_GetPrev
                0x00000000        0x4 ./component/lists/generic_list.o
 .text.LIST_RemoveElement
                0x00000000       0x3a ./component/lists/generic_list.o
 .text.LIST_AddPrevElement
                0x00000000       0x3e ./component/lists/generic_list.o
 .text.LIST_GetSize
                0x00000000        0x4 ./component/lists/generic_list.o
 .text.LIST_GetAvailableSize
                0x00000000        0x8 ./component/lists/generic_list.o
 .debug_info    0x00000000     0x123e ./component/lists/generic_list.o
 .debug_abbrev  0x00000000      0x398 ./component/lists/generic_list.o
 .debug_loc     0x00000000      0x581 ./component/lists/generic_list.o
 .debug_aranges
                0x00000000       0x80 ./component/lists/generic_list.o
 .debug_ranges  0x00000000      0x1d8 ./component/lists/generic_list.o
 .debug_line    0x00000000      0x903 ./component/lists/generic_list.o
 .debug_str     0x00000000      0x889 ./component/lists/generic_list.o
 .comment       0x00000000       0x7a ./component/lists/generic_list.o
 .debug_frame   0x00000000      0x11c ./component/lists/generic_list.o
 .ARM.attributes
                0x00000000       0x32 ./component/lists/generic_list.o
 .text          0x00000000        0x0 ./board/pin_mux.o
 .data          0x00000000        0x0 ./board/pin_mux.o
 .bss           0x00000000        0x0 ./board/pin_mux.o
 .text.BOARD_InitBootPins
                0x00000000        0x2 ./board/pin_mux.o
 .text.UART1_PollForActivity
                0x00000000       0x40 ./board/pin_mux.o
 .text.UART1_InitPins
                0x00000000       0x1c ./board/pin_mux.o
 .text.UART1_RestoreDefault
                0x00000000       0x28 ./board/pin_mux.o
 .debug_info    0x00000000     0x11e0 ./board/pin_mux.o
 .debug_abbrev  0x00000000      0x2a0 ./board/pin_mux.o
 .debug_loc     0x00000000      0x350 ./board/pin_mux.o
 .debug_aranges
                0x00000000       0x38 ./board/pin_mux.o
 .debug_ranges  0x00000000       0x40 ./board/pin_mux.o
 .debug_line    0x00000000      0x4e1 ./board/pin_mux.o
 .debug_str     0x00000000      0x997 ./board/pin_mux.o
 .comment       0x00000000       0x7a ./board/pin_mux.o
 .debug_frame   0x00000000       0x5c ./board/pin_mux.o
 .ARM.attributes
                0x00000000       0x32 ./board/pin_mux.o
 .text          0x00000000        0x0 ./MIMXRT1062/bl_api.o
 .data          0x00000000        0x0 ./MIMXRT1062/bl_api.o
 .bss           0x00000000        0x0 ./MIMXRT1062/bl_api.o
 .text.RTWDOG_ClearStatusFlags
                0x00000000       0x10 ./MIMXRT1062/bl_api.o
 .text.RTWDOG_GetDefaultConfig
                0x00000000       0x10 ./MIMXRT1062/bl_api.o
 .text.RTWDOG_Init
                0x00000000       0x10 ./MIMXRT1062/bl_api.o
 .text.RTWDOG_Deinit
                0x00000000       0x10 ./MIMXRT1062/bl_api.o
 .text.WDOG_GetDefaultConfig
                0x00000000       0x10 ./MIMXRT1062/bl_api.o
 .text.WDOG_Init
                0x00000000       0x10 ./MIMXRT1062/bl_api.o
 .text.WDOG_Deinit
                0x00000000       0x10 ./MIMXRT1062/bl_api.o
 .text.WDOG_GetStatusFlags
                0x00000000       0x10 ./MIMXRT1062/bl_api.o
 .text.WDOG_ClearInterruptStatus
                0x00000000       0x10 ./MIMXRT1062/bl_api.o
 .text.WDOG_Refresh
                0x00000000       0x10 ./MIMXRT1062/bl_api.o
 .text.flexspi_nor_flash_erase_all
                0x00000000       0x10 ./MIMXRT1062/bl_api.o
 .text.flexspi_command_xfer
                0x00000000       0x10 ./MIMXRT1062/bl_api.o
 .text.flexspi_update_lut
                0x00000000       0x18 ./MIMXRT1062/bl_api.o
 .text          0x00000000        0x0 ./MIMXRT1062/bl_clock_config_MIMXRT1062.o
 .data          0x00000000        0x0 ./MIMXRT1062/bl_clock_config_MIMXRT1062.o
 .bss           0x00000000        0x0 ./MIMXRT1062/bl_clock_config_MIMXRT1062.o
 .text.flexspi_clock_gate_enable
                0x00000000       0x24 ./MIMXRT1062/bl_clock_config_MIMXRT1062.o
 .text.flexspi_clock_gate_disable
                0x00000000       0x24 ./MIMXRT1062/bl_clock_config_MIMXRT1062.o
 .text.flexspi_clock_config
                0x00000000      0x12c ./MIMXRT1062/bl_clock_config_MIMXRT1062.o
 .text.flexspi_get_clock
                0x00000000       0x5c ./MIMXRT1062/bl_clock_config_MIMXRT1062.o
 .text.flexspi_get_max_supported_freq
                0x00000000       0x18 ./MIMXRT1062/bl_clock_config_MIMXRT1062.o
 .text.flexspi_sw_delay_us
                0x00000000       0x22 ./MIMXRT1062/bl_clock_config_MIMXRT1062.o
 .rodata        0x00000000       0x38 ./MIMXRT1062/bl_clock_config_MIMXRT1062.o
 .text          0x00000000        0x0 ./MIMXRT1062/bl_lpuart_irq_config_MIMXRT1062.o
 .data          0x00000000        0x0 ./MIMXRT1062/bl_lpuart_irq_config_MIMXRT1062.o
 .bss           0x00000000        0x0 ./MIMXRT1062/bl_lpuart_irq_config_MIMXRT1062.o
 .text.LPUART_SetSystemIRQ
                0x00000000       0x20 ./MIMXRT1062/bl_lpuart_irq_config_MIMXRT1062.o
 .debug_info    0x00000000     0x1ffb ./MIMXRT1062/bl_lpuart_irq_config_MIMXRT1062.o
 .debug_abbrev  0x00000000      0x2ed ./MIMXRT1062/bl_lpuart_irq_config_MIMXRT1062.o
 .debug_loc     0x00000000       0x2c ./MIMXRT1062/bl_lpuart_irq_config_MIMXRT1062.o
 .debug_aranges
                0x00000000       0x20 ./MIMXRT1062/bl_lpuart_irq_config_MIMXRT1062.o
 .debug_ranges  0x00000000       0x10 ./MIMXRT1062/bl_lpuart_irq_config_MIMXRT1062.o
 .debug_line    0x00000000      0x5f7 ./MIMXRT1062/bl_lpuart_irq_config_MIMXRT1062.o
 .debug_str     0x00000000     0x1f42 ./MIMXRT1062/bl_lpuart_irq_config_MIMXRT1062.o
 .comment       0x00000000       0x7a ./MIMXRT1062/bl_lpuart_irq_config_MIMXRT1062.o
 .debug_frame   0x00000000       0x20 ./MIMXRT1062/bl_lpuart_irq_config_MIMXRT1062.o
 .ARM.attributes
                0x00000000       0x32 ./MIMXRT1062/bl_lpuart_irq_config_MIMXRT1062.o
 .text          0x00000000        0x0 ./MIMXRT1062/bl_peripherals_MIMXRT1062.o
 .data          0x00000000        0x0 ./MIMXRT1062/bl_peripherals_MIMXRT1062.o
 .bss           0x00000000        0x0 ./MIMXRT1062/bl_peripherals_MIMXRT1062.o
 .text          0x00000000        0x0 ./MIMXRT1062/external_memory_property_map_MIMXRT1062.o
 .data          0x00000000        0x0 ./MIMXRT1062/external_memory_property_map_MIMXRT1062.o
 .bss           0x00000000        0x0 ./MIMXRT1062/external_memory_property_map_MIMXRT1062.o
 .text          0x00000000        0x0 ./MIMXRT1062/flexspi_nand_config_MIMXRT1062.o
 .data          0x00000000        0x0 ./MIMXRT1062/flexspi_nand_config_MIMXRT1062.o
 .bss           0x00000000        0x0 ./MIMXRT1062/flexspi_nand_config_MIMXRT1062.o
 .text.flexspi_nand_get_fcb_search_cfg
                0x00000000       0x2c ./MIMXRT1062/flexspi_nand_config_MIMXRT1062.o
 .text.flexspi_nand_get_default_cfg_blk
                0x00000000      0x178 ./MIMXRT1062/flexspi_nand_config_MIMXRT1062.o
 .rodata.s_read_ecc_status_lut
                0x00000000       0x10 ./MIMXRT1062/flexspi_nand_config_MIMXRT1062.o
 .rodata.s_read_status_lut
                0x00000000       0x10 ./MIMXRT1062/flexspi_nand_config_MIMXRT1062.o
 .debug_info    0x00000000     0x1532 ./MIMXRT1062/flexspi_nand_config_MIMXRT1062.o
 .debug_abbrev  0x00000000      0x28c ./MIMXRT1062/flexspi_nand_config_MIMXRT1062.o
 .debug_loc     0x00000000      0x155 ./MIMXRT1062/flexspi_nand_config_MIMXRT1062.o
 .debug_aranges
                0x00000000       0x28 ./MIMXRT1062/flexspi_nand_config_MIMXRT1062.o
 .debug_ranges  0x00000000       0x18 ./MIMXRT1062/flexspi_nand_config_MIMXRT1062.o
 .debug_line    0x00000000      0x71d ./MIMXRT1062/flexspi_nand_config_MIMXRT1062.o
 .debug_str     0x00000000     0x1a1a ./MIMXRT1062/flexspi_nand_config_MIMXRT1062.o
 .comment       0x00000000       0x7a ./MIMXRT1062/flexspi_nand_config_MIMXRT1062.o
 .debug_frame   0x00000000       0x50 ./MIMXRT1062/flexspi_nand_config_MIMXRT1062.o
 .ARM.attributes
                0x00000000       0x32 ./MIMXRT1062/flexspi_nand_config_MIMXRT1062.o
 .text          0x00000000        0x0 ./MIMXRT1062/flexspi_nor_config_MIMXRT1062.o
 .data          0x00000000        0x0 ./MIMXRT1062/flexspi_nor_config_MIMXRT1062.o
 .bss           0x00000000        0x0 ./MIMXRT1062/flexspi_nor_config_MIMXRT1062.o
 .text.flexspi_nor_get_default_cfg_blk
                0x00000000       0xec ./MIMXRT1062/flexspi_nor_config_MIMXRT1062.o
 .rodata.s_dedicated3bRead
                0x00000000       0x10 ./MIMXRT1062/flexspi_nor_config_MIMXRT1062.o
 .rodata.s_dedicated4bRead
                0x00000000       0x10 ./MIMXRT1062/flexspi_nor_config_MIMXRT1062.o
 .rodata.s_hyperflashRead
                0x00000000       0x10 ./MIMXRT1062/flexspi_nor_config_MIMXRT1062.o
 .rodata.s_mxicOctDdrRead
                0x00000000       0x10 ./MIMXRT1062/flexspi_nor_config_MIMXRT1062.o
 .debug_info    0x00000000     0x13ba ./MIMXRT1062/flexspi_nor_config_MIMXRT1062.o
 .debug_abbrev  0x00000000      0x26a ./MIMXRT1062/flexspi_nor_config_MIMXRT1062.o
 .debug_loc     0x00000000       0x72 ./MIMXRT1062/flexspi_nor_config_MIMXRT1062.o
 .debug_aranges
                0x00000000       0x20 ./MIMXRT1062/flexspi_nor_config_MIMXRT1062.o
 .debug_ranges  0x00000000       0x10 ./MIMXRT1062/flexspi_nor_config_MIMXRT1062.o
 .debug_line    0x00000000      0x5ab ./MIMXRT1062/flexspi_nor_config_MIMXRT1062.o
 .debug_str     0x00000000     0x190f ./MIMXRT1062/flexspi_nor_config_MIMXRT1062.o
 .comment       0x00000000       0x7a ./MIMXRT1062/flexspi_nor_config_MIMXRT1062.o
 .debug_frame   0x00000000       0x2c ./MIMXRT1062/flexspi_nor_config_MIMXRT1062.o
 .ARM.attributes
                0x00000000       0x32 ./MIMXRT1062/flexspi_nor_config_MIMXRT1062.o
 .text          0x00000000        0x0 ./MIMXRT1062/hardware_init_MIMXRT1062.o
 .data          0x00000000        0x0 ./MIMXRT1062/hardware_init_MIMXRT1062.o
 .bss           0x00000000        0x0 ./MIMXRT1062/hardware_init_MIMXRT1062.o
 .text.flexspi_iomux_config
                0x00000000      0x29c ./MIMXRT1062/hardware_init_MIMXRT1062.o
 .text.get_uart_clock
                0x00000000        0x8 ./MIMXRT1062/hardware_init_MIMXRT1062.o
 .text.get_primary_boot_device
                0x00000000       0x34 ./MIMXRT1062/hardware_init_MIMXRT1062.o
 .text.flexspi_set_failsafe_setting
                0x00000000       0x2a ./MIMXRT1062/hardware_init_MIMXRT1062.o
 .text.dummy_byte_callback
                0x00000000        0x2 ./MIMXRT1062/hardware_init_MIMXRT1062.o
 .text.debug_init
                0x00000000        0x2 ./MIMXRT1062/hardware_init_MIMXRT1062.o
 .text.flexspi_nor_write_persistent
                0x00000000        0xc ./MIMXRT1062/hardware_init_MIMXRT1062.o
 .text.flexspi_nor_read_persistent
                0x00000000       0x10 ./MIMXRT1062/hardware_init_MIMXRT1062.o
 .text          0x00000000        0x0 ./MIMXRT1062/memory_map_MIMXRT1062.o
 .data          0x00000000        0x0 ./MIMXRT1062/memory_map_MIMXRT1062.o
 .bss           0x00000000        0x0 ./MIMXRT1062/memory_map_MIMXRT1062.o
 .text          0x00000000        0x0 ./MIMXRT1062/pinmux_utility_imxrt_series.o
 .data          0x00000000        0x0 ./MIMXRT1062/pinmux_utility_imxrt_series.o
 .bss           0x00000000        0x0 ./MIMXRT1062/pinmux_utility_imxrt_series.o
 .text.uart_pinmux_config
                0x00000000       0x18 ./MIMXRT1062/pinmux_utility_imxrt_series.o
 .text.enable_autobaud_pin_irq
                0x00000000       0x38 ./MIMXRT1062/pinmux_utility_imxrt_series.o
 .text.disable_autobaud_pin_irq
                0x00000000       0x38 ./MIMXRT1062/pinmux_utility_imxrt_series.o
 .text          0x00000000        0x0 ./MIMXRT1062/sdmmc_config_MIMXRT1062.o
 .data          0x00000000        0x0 ./MIMXRT1062/sdmmc_config_MIMXRT1062.o
 .bss           0x00000000        0x0 ./MIMXRT1062/sdmmc_config_MIMXRT1062.o
 .debug_info    0x00000000      0x96c ./MIMXRT1062/sdmmc_config_MIMXRT1062.o
 .debug_abbrev  0x00000000      0x17a ./MIMXRT1062/sdmmc_config_MIMXRT1062.o
 .debug_aranges
                0x00000000       0x18 ./MIMXRT1062/sdmmc_config_MIMXRT1062.o
 .debug_line    0x00000000      0x2f5 ./MIMXRT1062/sdmmc_config_MIMXRT1062.o
 .debug_str     0x00000000      0x665 ./MIMXRT1062/sdmmc_config_MIMXRT1062.o
 .comment       0x00000000       0x7a ./MIMXRT1062/sdmmc_config_MIMXRT1062.o
 .ARM.attributes
                0x00000000       0x37 ./MIMXRT1062/sdmmc_config_MIMXRT1062.o
 .text          0x00000000        0x0 ./MIMXRT1062/semc_nand_config_MIMXRT1062.o
 .data          0x00000000        0x0 ./MIMXRT1062/semc_nand_config_MIMXRT1062.o
 .bss           0x00000000        0x0 ./MIMXRT1062/semc_nand_config_MIMXRT1062.o
 .text.semc_nand_get_fcb_search_cfg
                0x00000000       0x30 ./MIMXRT1062/semc_nand_config_MIMXRT1062.o
 .text.semc_nand_get_config_data_from_fuse
                0x00000000      0x158 ./MIMXRT1062/semc_nand_config_MIMXRT1062.o
 .text.semc_nand_get_default_config_block
                0x00000000       0xc8 ./MIMXRT1062/semc_nand_config_MIMXRT1062.o
 .debug_info    0x00000000     0x1726 ./MIMXRT1062/semc_nand_config_MIMXRT1062.o
 .debug_abbrev  0x00000000      0x2e7 ./MIMXRT1062/semc_nand_config_MIMXRT1062.o
 .debug_loc     0x00000000      0x217 ./MIMXRT1062/semc_nand_config_MIMXRT1062.o
 .debug_aranges
                0x00000000       0x30 ./MIMXRT1062/semc_nand_config_MIMXRT1062.o
 .debug_ranges  0x00000000       0x20 ./MIMXRT1062/semc_nand_config_MIMXRT1062.o
 .debug_line    0x00000000      0x833 ./MIMXRT1062/semc_nand_config_MIMXRT1062.o
 .debug_str     0x00000000     0x2129 ./MIMXRT1062/semc_nand_config_MIMXRT1062.o
 .comment       0x00000000       0x7a ./MIMXRT1062/semc_nand_config_MIMXRT1062.o
 .debug_frame   0x00000000       0x54 ./MIMXRT1062/semc_nand_config_MIMXRT1062.o
 .ARM.attributes
                0x00000000       0x32 ./MIMXRT1062/semc_nand_config_MIMXRT1062.o
 .text          0x00000000        0x0 ./MIMXRT1062/semc_nor_config_MIMXRT1062.o
 .data          0x00000000        0x0 ./MIMXRT1062/semc_nor_config_MIMXRT1062.o
 .bss           0x00000000        0x0 ./MIMXRT1062/semc_nor_config_MIMXRT1062.o
 .text.semc_nor_get_config_data_from_fuse
                0x00000000      0x138 ./MIMXRT1062/semc_nor_config_MIMXRT1062.o
 .text.semc_nor_get_default_config_block
                0x00000000       0x6c ./MIMXRT1062/semc_nor_config_MIMXRT1062.o
 .debug_info    0x00000000     0x13a2 ./MIMXRT1062/semc_nor_config_MIMXRT1062.o
 .debug_abbrev  0x00000000      0x2ac ./MIMXRT1062/semc_nor_config_MIMXRT1062.o
 .debug_loc     0x00000000      0x1a4 ./MIMXRT1062/semc_nor_config_MIMXRT1062.o
 .debug_aranges
                0x00000000       0x28 ./MIMXRT1062/semc_nor_config_MIMXRT1062.o
 .debug_ranges  0x00000000       0x18 ./MIMXRT1062/semc_nor_config_MIMXRT1062.o
 .debug_line    0x00000000      0x677 ./MIMXRT1062/semc_nor_config_MIMXRT1062.o
 .debug_str     0x00000000     0x1714 ./MIMXRT1062/semc_nor_config_MIMXRT1062.o
 .comment       0x00000000       0x7a ./MIMXRT1062/semc_nor_config_MIMXRT1062.o
 .debug_frame   0x00000000       0x3c ./MIMXRT1062/semc_nor_config_MIMXRT1062.o
 .ARM.attributes
                0x00000000       0x32 ./MIMXRT1062/semc_nor_config_MIMXRT1062.o
 .text          0x00000000       0xa0 c:/nxp/mcuxpressoide_11.2.0_4120/ide/plugins/com.nxp.mcuxpresso.tools.win32_11.2.0.202001021529/tools/bin/../lib/gcc/arm-none-eabi/9.2.1/thumb/v7e-m+dp/hard\libgcc.a(_aeabi_ldivmod.o)
 .data          0x00000000        0x0 c:/nxp/mcuxpressoide_11.2.0_4120/ide/plugins/com.nxp.mcuxpresso.tools.win32_11.2.0.202001021529/tools/bin/../lib/gcc/arm-none-eabi/9.2.1/thumb/v7e-m+dp/hard\libgcc.a(_aeabi_ldivmod.o)
 .bss           0x00000000        0x0 c:/nxp/mcuxpressoide_11.2.0_4120/ide/plugins/com.nxp.mcuxpresso.tools.win32_11.2.0.202001021529/tools/bin/../lib/gcc/arm-none-eabi/9.2.1/thumb/v7e-m+dp/hard\libgcc.a(_aeabi_ldivmod.o)
 .debug_frame   0x00000000       0x44 c:/nxp/mcuxpressoide_11.2.0_4120/ide/plugins/com.nxp.mcuxpresso.tools.win32_11.2.0.202001021529/tools/bin/../lib/gcc/arm-none-eabi/9.2.1/thumb/v7e-m+dp/hard\libgcc.a(_aeabi_ldivmod.o)
 .ARM.attributes
                0x00000000       0x1e c:/nxp/mcuxpressoide_11.2.0_4120/ide/plugins/com.nxp.mcuxpresso.tools.win32_11.2.0.202001021529/tools/bin/../lib/gcc/arm-none-eabi/9.2.1/thumb/v7e-m+dp/hard\libgcc.a(_aeabi_ldivmod.o)
 .data          0x00000000        0x0 c:/nxp/mcuxpressoide_11.2.0_4120/ide/plugins/com.nxp.mcuxpresso.tools.win32_11.2.0.202001021529/tools/bin/../lib/gcc/arm-none-eabi/9.2.1/thumb/v7e-m+dp/hard\libgcc.a(_aeabi_uldivmod.o)
 .bss           0x00000000        0x0 c:/nxp/mcuxpressoide_11.2.0_4120/ide/plugins/com.nxp.mcuxpresso.tools.win32_11.2.0.202001021529/tools/bin/../lib/gcc/arm-none-eabi/9.2.1/thumb/v7e-m+dp/hard\libgcc.a(_aeabi_uldivmod.o)
 .data          0x00000000        0x0 c:/nxp/mcuxpressoide_11.2.0_4120/ide/plugins/com.nxp.mcuxpresso.tools.win32_11.2.0.202001021529/tools/bin/../lib/gcc/arm-none-eabi/9.2.1/thumb/v7e-m+dp/hard\libgcc.a(_udivmoddi4.o)
 .bss           0x00000000        0x0 c:/nxp/mcuxpressoide_11.2.0_4120/ide/plugins/com.nxp.mcuxpresso.tools.win32_11.2.0.202001021529/tools/bin/../lib/gcc/arm-none-eabi/9.2.1/thumb/v7e-m+dp/hard\libgcc.a(_udivmoddi4.o)
 .ARM.extab     0x00000000        0x0 c:/nxp/mcuxpressoide_11.2.0_4120/ide/plugins/com.nxp.mcuxpresso.tools.win32_11.2.0.202001021529/tools/bin/../lib/gcc/arm-none-eabi/9.2.1/thumb/v7e-m+dp/hard\libgcc.a(_udivmoddi4.o)
 .data          0x00000000        0x0 c:/nxp/mcuxpressoide_11.2.0_4120/ide/plugins/com.nxp.mcuxpresso.tools.win32_11.2.0.202001021529/tools/bin/../lib/gcc/arm-none-eabi/9.2.1/thumb/v7e-m+dp/hard\libgcc.a(_dvmd_tls.o)
 .bss           0x00000000        0x0 c:/nxp/mcuxpressoide_11.2.0_4120/ide/plugins/com.nxp.mcuxpresso.tools.win32_11.2.0.202001021529/tools/bin/../lib/gcc/arm-none-eabi/9.2.1/thumb/v7e-m+dp/hard\libgcc.a(_dvmd_tls.o)
 .text          0x00000000        0x0 c:/nxp/mcuxpressoide_11.2.0_4120/ide/plugins/com.nxp.mcuxpresso.tools.win32_11.2.0.202001021529/tools/bin/../lib/gcc/arm-none-eabi/9.2.1/../../../../arm-none-eabi/lib/thumb/v7e-m+dp/hard\libc_nano.a(lib_a-malloc.o)
 .data          0x00000000        0x0 c:/nxp/mcuxpressoide_11.2.0_4120/ide/plugins/com.nxp.mcuxpresso.tools.win32_11.2.0.202001021529/tools/bin/../lib/gcc/arm-none-eabi/9.2.1/../../../../arm-none-eabi/lib/thumb/v7e-m+dp/hard\libc_nano.a(lib_a-malloc.o)
 .bss           0x00000000        0x0 c:/nxp/mcuxpressoide_11.2.0_4120/ide/plugins/com.nxp.mcuxpresso.tools.win32_11.2.0.202001021529/tools/bin/../lib/gcc/arm-none-eabi/9.2.1/../../../../arm-none-eabi/lib/thumb/v7e-m+dp/hard\libc_nano.a(lib_a-malloc.o)
 .text.malloc   0x00000000       0x10 c:/nxp/mcuxpressoide_11.2.0_4120/ide/plugins/com.nxp.mcuxpresso.tools.win32_11.2.0.202001021529/tools/bin/../lib/gcc/arm-none-eabi/9.2.1/../../../../arm-none-eabi/lib/thumb/v7e-m+dp/hard\libc_nano.a(lib_a-malloc.o)
 .text.free     0x00000000       0x10 c:/nxp/mcuxpressoide_11.2.0_4120/ide/plugins/com.nxp.mcuxpresso.tools.win32_11.2.0.202001021529/tools/bin/../lib/gcc/arm-none-eabi/9.2.1/../../../../arm-none-eabi/lib/thumb/v7e-m+dp/hard\libc_nano.a(lib_a-malloc.o)
 .debug_frame   0x00000000       0x30 c:/nxp/mcuxpressoide_11.2.0_4120/ide/plugins/com.nxp.mcuxpresso.tools.win32_11.2.0.202001021529/tools/bin/../lib/gcc/arm-none-eabi/9.2.1/../../../../arm-none-eabi/lib/thumb/v7e-m+dp/hard\libc_nano.a(lib_a-malloc.o)
 .ARM.attributes
                0x00000000       0x32 c:/nxp/mcuxpressoide_11.2.0_4120/ide/plugins/com.nxp.mcuxpresso.tools.win32_11.2.0.202001021529/tools/bin/../lib/gcc/arm-none-eabi/9.2.1/../../../../arm-none-eabi/lib/thumb/v7e-m+dp/hard\libc_nano.a(lib_a-malloc.o)
 .text          0x00000000        0x0 c:/nxp/mcuxpressoide_11.2.0_4120/ide/plugins/com.nxp.mcuxpresso.tools.win32_11.2.0.202001021529/tools/bin/../lib/gcc/arm-none-eabi/9.2.1/../../../../arm-none-eabi/lib/thumb/v7e-m+dp/hard\libc_nano.a(lib_a-memcmp.o)
 .data          0x00000000        0x0 c:/nxp/mcuxpressoide_11.2.0_4120/ide/plugins/com.nxp.mcuxpresso.tools.win32_11.2.0.202001021529/tools/bin/../lib/gcc/arm-none-eabi/9.2.1/../../../../arm-none-eabi/lib/thumb/v7e-m+dp/hard\libc_nano.a(lib_a-memcmp.o)
 .bss           0x00000000        0x0 c:/nxp/mcuxpressoide_11.2.0_4120/ide/plugins/com.nxp.mcuxpresso.tools.win32_11.2.0.202001021529/tools/bin/../lib/gcc/arm-none-eabi/9.2.1/../../../../arm-none-eabi/lib/thumb/v7e-m+dp/hard\libc_nano.a(lib_a-memcmp.o)
 .text          0x00000000        0x0 c:/nxp/mcuxpressoide_11.2.0_4120/ide/plugins/com.nxp.mcuxpresso.tools.win32_11.2.0.202001021529/tools/bin/../lib/gcc/arm-none-eabi/9.2.1/../../../../arm-none-eabi/lib/thumb/v7e-m+dp/hard\libc_nano.a(lib_a-memcpy-stub.o)
 .data          0x00000000        0x0 c:/nxp/mcuxpressoide_11.2.0_4120/ide/plugins/com.nxp.mcuxpresso.tools.win32_11.2.0.202001021529/tools/bin/../lib/gcc/arm-none-eabi/9.2.1/../../../../arm-none-eabi/lib/thumb/v7e-m+dp/hard\libc_nano.a(lib_a-memcpy-stub.o)
 .bss           0x00000000        0x0 c:/nxp/mcuxpressoide_11.2.0_4120/ide/plugins/com.nxp.mcuxpresso.tools.win32_11.2.0.202001021529/tools/bin/../lib/gcc/arm-none-eabi/9.2.1/../../../../arm-none-eabi/lib/thumb/v7e-m+dp/hard\libc_nano.a(lib_a-memcpy-stub.o)
 .text          0x00000000        0x0 c:/nxp/mcuxpressoide_11.2.0_4120/ide/plugins/com.nxp.mcuxpresso.tools.win32_11.2.0.202001021529/tools/bin/../lib/gcc/arm-none-eabi/9.2.1/../../../../arm-none-eabi/lib/thumb/v7e-m+dp/hard\libc_nano.a(lib_a-memset.o)
 .data          0x00000000        0x0 c:/nxp/mcuxpressoide_11.2.0_4120/ide/plugins/com.nxp.mcuxpresso.tools.win32_11.2.0.202001021529/tools/bin/../lib/gcc/arm-none-eabi/9.2.1/../../../../arm-none-eabi/lib/thumb/v7e-m+dp/hard\libc_nano.a(lib_a-memset.o)
 .bss           0x00000000        0x0 c:/nxp/mcuxpressoide_11.2.0_4120/ide/plugins/com.nxp.mcuxpresso.tools.win32_11.2.0.202001021529/tools/bin/../lib/gcc/arm-none-eabi/9.2.1/../../../../arm-none-eabi/lib/thumb/v7e-m+dp/hard\libc_nano.a(lib_a-memset.o)
 .text          0x00000000        0x0 c:/nxp/mcuxpressoide_11.2.0_4120/ide/plugins/com.nxp.mcuxpresso.tools.win32_11.2.0.202001021529/tools/bin/../lib/gcc/arm-none-eabi/9.2.1/../../../../arm-none-eabi/lib/thumb/v7e-m+dp/hard\libc_nano.a(lib_a-nano-freer.o)
 .data          0x00000000        0x0 c:/nxp/mcuxpressoide_11.2.0_4120/ide/plugins/com.nxp.mcuxpresso.tools.win32_11.2.0.202001021529/tools/bin/../lib/gcc/arm-none-eabi/9.2.1/../../../../arm-none-eabi/lib/thumb/v7e-m+dp/hard\libc_nano.a(lib_a-nano-freer.o)
 .bss           0x00000000        0x0 c:/nxp/mcuxpressoide_11.2.0_4120/ide/plugins/com.nxp.mcuxpresso.tools.win32_11.2.0.202001021529/tools/bin/../lib/gcc/arm-none-eabi/9.2.1/../../../../arm-none-eabi/lib/thumb/v7e-m+dp/hard\libc_nano.a(lib_a-nano-freer.o)
 .text._free_r  0x00000000       0xa0 c:/nxp/mcuxpressoide_11.2.0_4120/ide/plugins/com.nxp.mcuxpresso.tools.win32_11.2.0.202001021529/tools/bin/../lib/gcc/arm-none-eabi/9.2.1/../../../../arm-none-eabi/lib/thumb/v7e-m+dp/hard\libc_nano.a(lib_a-nano-freer.o)
 .debug_frame   0x00000000       0x38 c:/nxp/mcuxpressoide_11.2.0_4120/ide/plugins/com.nxp.mcuxpresso.tools.win32_11.2.0.202001021529/tools/bin/../lib/gcc/arm-none-eabi/9.2.1/../../../../arm-none-eabi/lib/thumb/v7e-m+dp/hard\libc_nano.a(lib_a-nano-freer.o)
 .ARM.attributes
                0x00000000       0x32 c:/nxp/mcuxpressoide_11.2.0_4120/ide/plugins/com.nxp.mcuxpresso.tools.win32_11.2.0.202001021529/tools/bin/../lib/gcc/arm-none-eabi/9.2.1/../../../../arm-none-eabi/lib/thumb/v7e-m+dp/hard\libc_nano.a(lib_a-nano-freer.o)
 .text          0x00000000        0x0 c:/nxp/mcuxpressoide_11.2.0_4120/ide/plugins/com.nxp.mcuxpresso.tools.win32_11.2.0.202001021529/tools/bin/../lib/gcc/arm-none-eabi/9.2.1/../../../../arm-none-eabi/lib/thumb/v7e-m+dp/hard\libc_nano.a(lib_a-nano-mallocr.o)
 .data          0x00000000        0x0 c:/nxp/mcuxpressoide_11.2.0_4120/ide/plugins/com.nxp.mcuxpresso.tools.win32_11.2.0.202001021529/tools/bin/../lib/gcc/arm-none-eabi/9.2.1/../../../../arm-none-eabi/lib/thumb/v7e-m+dp/hard\libc_nano.a(lib_a-nano-mallocr.o)
 .bss           0x00000000        0x0 c:/nxp/mcuxpressoide_11.2.0_4120/ide/plugins/com.nxp.mcuxpresso.tools.win32_11.2.0.202001021529/tools/bin/../lib/gcc/arm-none-eabi/9.2.1/../../../../arm-none-eabi/lib/thumb/v7e-m+dp/hard\libc_nano.a(lib_a-nano-mallocr.o)
 .text._malloc_r
                0x00000000       0xb4 c:/nxp/mcuxpressoide_11.2.0_4120/ide/plugins/com.nxp.mcuxpresso.tools.win32_11.2.0.202001021529/tools/bin/../lib/gcc/arm-none-eabi/9.2.1/../../../../arm-none-eabi/lib/thumb/v7e-m+dp/hard\libc_nano.a(lib_a-nano-mallocr.o)
 .bss.__malloc_free_list
                0x00000000        0x4 c:/nxp/mcuxpressoide_11.2.0_4120/ide/plugins/com.nxp.mcuxpresso.tools.win32_11.2.0.202001021529/tools/bin/../lib/gcc/arm-none-eabi/9.2.1/../../../../arm-none-eabi/lib/thumb/v7e-m+dp/hard\libc_nano.a(lib_a-nano-mallocr.o)
 .bss.__malloc_sbrk_start
                0x00000000        0x4 c:/nxp/mcuxpressoide_11.2.0_4120/ide/plugins/com.nxp.mcuxpresso.tools.win32_11.2.0.202001021529/tools/bin/../lib/gcc/arm-none-eabi/9.2.1/../../../../arm-none-eabi/lib/thumb/v7e-m+dp/hard\libc_nano.a(lib_a-nano-mallocr.o)
 .debug_frame   0x00000000       0x30 c:/nxp/mcuxpressoide_11.2.0_4120/ide/plugins/com.nxp.mcuxpresso.tools.win32_11.2.0.202001021529/tools/bin/../lib/gcc/arm-none-eabi/9.2.1/../../../../arm-none-eabi/lib/thumb/v7e-m+dp/hard\libc_nano.a(lib_a-nano-mallocr.o)
 .ARM.attributes
                0x00000000       0x32 c:/nxp/mcuxpressoide_11.2.0_4120/ide/plugins/com.nxp.mcuxpresso.tools.win32_11.2.0.202001021529/tools/bin/../lib/gcc/arm-none-eabi/9.2.1/../../../../arm-none-eabi/lib/thumb/v7e-m+dp/hard\libc_nano.a(lib_a-nano-mallocr.o)
 .text          0x00000000        0x0 c:/nxp/mcuxpressoide_11.2.0_4120/ide/plugins/com.nxp.mcuxpresso.tools.win32_11.2.0.202001021529/tools/bin/../lib/gcc/arm-none-eabi/9.2.1/../../../../arm-none-eabi/lib/thumb/v7e-m+dp/hard\libc_nano.a(lib_a-sbrkr.o)
 .data          0x00000000        0x0 c:/nxp/mcuxpressoide_11.2.0_4120/ide/plugins/com.nxp.mcuxpresso.tools.win32_11.2.0.202001021529/tools/bin/../lib/gcc/arm-none-eabi/9.2.1/../../../../arm-none-eabi/lib/thumb/v7e-m+dp/hard\libc_nano.a(lib_a-sbrkr.o)
 .bss           0x00000000        0x0 c:/nxp/mcuxpressoide_11.2.0_4120/ide/plugins/com.nxp.mcuxpresso.tools.win32_11.2.0.202001021529/tools/bin/../lib/gcc/arm-none-eabi/9.2.1/../../../../arm-none-eabi/lib/thumb/v7e-m+dp/hard\libc_nano.a(lib_a-sbrkr.o)
 .text._sbrk_r  0x00000000       0x20 c:/nxp/mcuxpressoide_11.2.0_4120/ide/plugins/com.nxp.mcuxpresso.tools.win32_11.2.0.202001021529/tools/bin/../lib/gcc/arm-none-eabi/9.2.1/../../../../arm-none-eabi/lib/thumb/v7e-m+dp/hard\libc_nano.a(lib_a-sbrkr.o)
 .debug_frame   0x00000000       0x2c c:/nxp/mcuxpressoide_11.2.0_4120/ide/plugins/com.nxp.mcuxpresso.tools.win32_11.2.0.202001021529/tools/bin/../lib/gcc/arm-none-eabi/9.2.1/../../../../arm-none-eabi/lib/thumb/v7e-m+dp/hard\libc_nano.a(lib_a-sbrkr.o)
 .ARM.attributes
                0x00000000       0x32 c:/nxp/mcuxpressoide_11.2.0_4120/ide/plugins/com.nxp.mcuxpresso.tools.win32_11.2.0.202001021529/tools/bin/../lib/gcc/arm-none-eabi/9.2.1/../../../../arm-none-eabi/lib/thumb/v7e-m+dp/hard\libc_nano.a(lib_a-sbrkr.o)
 .text          0x00000000        0x0 c:/nxp/mcuxpressoide_11.2.0_4120/ide/plugins/com.nxp.mcuxpresso.tools.win32_11.2.0.202001021529/tools/bin/../lib/gcc/arm-none-eabi/9.2.1/../../../../arm-none-eabi/lib/thumb/v7e-m+dp/hard\libc_nano.a(lib_a-impure.o)
 .data          0x00000000        0x0 c:/nxp/mcuxpressoide_11.2.0_4120/ide/plugins/com.nxp.mcuxpresso.tools.win32_11.2.0.202001021529/tools/bin/../lib/gcc/arm-none-eabi/9.2.1/../../../../arm-none-eabi/lib/thumb/v7e-m+dp/hard\libc_nano.a(lib_a-impure.o)
 .bss           0x00000000        0x0 c:/nxp/mcuxpressoide_11.2.0_4120/ide/plugins/com.nxp.mcuxpresso.tools.win32_11.2.0.202001021529/tools/bin/../lib/gcc/arm-none-eabi/9.2.1/../../../../arm-none-eabi/lib/thumb/v7e-m+dp/hard\libc_nano.a(lib_a-impure.o)
 .data._impure_ptr
                0x00000000        0x4 c:/nxp/mcuxpressoide_11.2.0_4120/ide/plugins/com.nxp.mcuxpresso.tools.win32_11.2.0.202001021529/tools/bin/../lib/gcc/arm-none-eabi/9.2.1/../../../../arm-none-eabi/lib/thumb/v7e-m+dp/hard\libc_nano.a(lib_a-impure.o)
 .data.impure_data
                0x00000000       0x60 c:/nxp/mcuxpressoide_11.2.0_4120/ide/plugins/com.nxp.mcuxpresso.tools.win32_11.2.0.202001021529/tools/bin/../lib/gcc/arm-none-eabi/9.2.1/../../../../arm-none-eabi/lib/thumb/v7e-m+dp/hard\libc_nano.a(lib_a-impure.o)
 .rodata._global_impure_ptr
                0x00000000        0x4 c:/nxp/mcuxpressoide_11.2.0_4120/ide/plugins/com.nxp.mcuxpresso.tools.win32_11.2.0.202001021529/tools/bin/../lib/gcc/arm-none-eabi/9.2.1/../../../../arm-none-eabi/lib/thumb/v7e-m+dp/hard\libc_nano.a(lib_a-impure.o)
 .ARM.attributes
                0x00000000       0x30 c:/nxp/mcuxpressoide_11.2.0_4120/ide/plugins/com.nxp.mcuxpresso.tools.win32_11.2.0.202001021529/tools/bin/../lib/gcc/arm-none-eabi/9.2.1/../../../../arm-none-eabi/lib/thumb/v7e-m+dp/hard\libc_nano.a(lib_a-impure.o)
 .text          0x00000000        0x0 c:/nxp/mcuxpressoide_11.2.0_4120/ide/plugins/com.nxp.mcuxpresso.tools.win32_11.2.0.202001021529/tools/bin/../lib/gcc/arm-none-eabi/9.2.1/../../../../arm-none-eabi/lib/thumb/v7e-m+dp/hard\libc_nano.a(lib_a-mlock.o)
 .data          0x00000000        0x0 c:/nxp/mcuxpressoide_11.2.0_4120/ide/plugins/com.nxp.mcuxpresso.tools.win32_11.2.0.202001021529/tools/bin/../lib/gcc/arm-none-eabi/9.2.1/../../../../arm-none-eabi/lib/thumb/v7e-m+dp/hard\libc_nano.a(lib_a-mlock.o)
 .bss           0x00000000        0x0 c:/nxp/mcuxpressoide_11.2.0_4120/ide/plugins/com.nxp.mcuxpresso.tools.win32_11.2.0.202001021529/tools/bin/../lib/gcc/arm-none-eabi/9.2.1/../../../../arm-none-eabi/lib/thumb/v7e-m+dp/hard\libc_nano.a(lib_a-mlock.o)
 .text.__malloc_lock
                0x00000000        0xc c:/nxp/mcuxpressoide_11.2.0_4120/ide/plugins/com.nxp.mcuxpresso.tools.win32_11.2.0.202001021529/tools/bin/../lib/gcc/arm-none-eabi/9.2.1/../../../../arm-none-eabi/lib/thumb/v7e-m+dp/hard\libc_nano.a(lib_a-mlock.o)
 .text.__malloc_unlock
                0x00000000        0xc c:/nxp/mcuxpressoide_11.2.0_4120/ide/plugins/com.nxp.mcuxpresso.tools.win32_11.2.0.202001021529/tools/bin/../lib/gcc/arm-none-eabi/9.2.1/../../../../arm-none-eabi/lib/thumb/v7e-m+dp/hard\libc_nano.a(lib_a-mlock.o)
 .debug_frame   0x00000000       0x30 c:/nxp/mcuxpressoide_11.2.0_4120/ide/plugins/com.nxp.mcuxpresso.tools.win32_11.2.0.202001021529/tools/bin/../lib/gcc/arm-none-eabi/9.2.1/../../../../arm-none-eabi/lib/thumb/v7e-m+dp/hard\libc_nano.a(lib_a-mlock.o)
 .ARM.attributes
                0x00000000       0x32 c:/nxp/mcuxpressoide_11.2.0_4120/ide/plugins/com.nxp.mcuxpresso.tools.win32_11.2.0.202001021529/tools/bin/../lib/gcc/arm-none-eabi/9.2.1/../../../../arm-none-eabi/lib/thumb/v7e-m+dp/hard\libc_nano.a(lib_a-mlock.o)
 .text          0x00000000        0x0 c:/nxp/mcuxpressoide_11.2.0_4120/ide/plugins/com.nxp.mcuxpresso.tools.win32_11.2.0.202001021529/tools/bin/../lib/gcc/arm-none-eabi/9.2.1/../../../../arm-none-eabi/lib/thumb/v7e-m+dp/hard\libc_nano.a(lib_a-reent.o)
 .data          0x00000000        0x0 c:/nxp/mcuxpressoide_11.2.0_4120/ide/plugins/com.nxp.mcuxpresso.tools.win32_11.2.0.202001021529/tools/bin/../lib/gcc/arm-none-eabi/9.2.1/../../../../arm-none-eabi/lib/thumb/v7e-m+dp/hard\libc_nano.a(lib_a-reent.o)
 .bss           0x00000000        0x0 c:/nxp/mcuxpressoide_11.2.0_4120/ide/plugins/com.nxp.mcuxpresso.tools.win32_11.2.0.202001021529/tools/bin/../lib/gcc/arm-none-eabi/9.2.1/../../../../arm-none-eabi/lib/thumb/v7e-m+dp/hard\libc_nano.a(lib_a-reent.o)
 .text.cleanup_glue
                0x00000000       0x1a c:/nxp/mcuxpressoide_11.2.0_4120/ide/plugins/com.nxp.mcuxpresso.tools.win32_11.2.0.202001021529/tools/bin/../lib/gcc/arm-none-eabi/9.2.1/../../../../arm-none-eabi/lib/thumb/v7e-m+dp/hard\libc_nano.a(lib_a-reent.o)
 .text._reclaim_reent
                0x00000000       0xb8 c:/nxp/mcuxpressoide_11.2.0_4120/ide/plugins/com.nxp.mcuxpresso.tools.win32_11.2.0.202001021529/tools/bin/../lib/gcc/arm-none-eabi/9.2.1/../../../../arm-none-eabi/lib/thumb/v7e-m+dp/hard\libc_nano.a(lib_a-reent.o)
 .debug_frame   0x00000000       0x5c c:/nxp/mcuxpressoide_11.2.0_4120/ide/plugins/com.nxp.mcuxpresso.tools.win32_11.2.0.202001021529/tools/bin/../lib/gcc/arm-none-eabi/9.2.1/../../../../arm-none-eabi/lib/thumb/v7e-m+dp/hard\libc_nano.a(lib_a-reent.o)
 .ARM.attributes
                0x00000000       0x32 c:/nxp/mcuxpressoide_11.2.0_4120/ide/plugins/com.nxp.mcuxpresso.tools.win32_11.2.0.202001021529/tools/bin/../lib/gcc/arm-none-eabi/9.2.1/../../../../arm-none-eabi/lib/thumb/v7e-m+dp/hard\libc_nano.a(lib_a-reent.o)
 COMMON         0x00000000        0x4 c:/nxp/mcuxpressoide_11.2.0_4120/ide/plugins/com.nxp.mcuxpresso.tools.win32_11.2.0.202001021529/tools/bin/../lib/gcc/arm-none-eabi/9.2.1/../../../../arm-none-eabi/lib/thumb/v7e-m+dp/hard\libc_nano.a(lib_a-reent.o)
 .text          0x00000000        0x0 c:/nxp/mcuxpressoide_11.2.0_4120/ide/plugins/com.nxp.mcuxpresso.tools.win32_11.2.0.202001021529/tools/bin/../lib/gcc/arm-none-eabi/9.2.1/../../../../arm-none-eabi/lib/thumb/v7e-m+dp/hard\libc_nano.a(lib_a-lock.o)
 .data          0x00000000        0x0 c:/nxp/mcuxpressoide_11.2.0_4120/ide/plugins/com.nxp.mcuxpresso.tools.win32_11.2.0.202001021529/tools/bin/../lib/gcc/arm-none-eabi/9.2.1/../../../../arm-none-eabi/lib/thumb/v7e-m+dp/hard\libc_nano.a(lib_a-lock.o)
 .bss           0x00000000        0x0 c:/nxp/mcuxpressoide_11.2.0_4120/ide/plugins/com.nxp.mcuxpresso.tools.win32_11.2.0.202001021529/tools/bin/../lib/gcc/arm-none-eabi/9.2.1/../../../../arm-none-eabi/lib/thumb/v7e-m+dp/hard\libc_nano.a(lib_a-lock.o)
 .text.__retarget_lock_init
                0x00000000        0x2 c:/nxp/mcuxpressoide_11.2.0_4120/ide/plugins/com.nxp.mcuxpresso.tools.win32_11.2.0.202001021529/tools/bin/../lib/gcc/arm-none-eabi/9.2.1/../../../../arm-none-eabi/lib/thumb/v7e-m+dp/hard\libc_nano.a(lib_a-lock.o)
 .text.__retarget_lock_init_recursive
                0x00000000        0x2 c:/nxp/mcuxpressoide_11.2.0_4120/ide/plugins/com.nxp.mcuxpresso.tools.win32_11.2.0.202001021529/tools/bin/../lib/gcc/arm-none-eabi/9.2.1/../../../../arm-none-eabi/lib/thumb/v7e-m+dp/hard\libc_nano.a(lib_a-lock.o)
 .text.__retarget_lock_close
                0x00000000        0x2 c:/nxp/mcuxpressoide_11.2.0_4120/ide/plugins/com.nxp.mcuxpresso.tools.win32_11.2.0.202001021529/tools/bin/../lib/gcc/arm-none-eabi/9.2.1/../../../../arm-none-eabi/lib/thumb/v7e-m+dp/hard\libc_nano.a(lib_a-lock.o)
 .text.__retarget_lock_close_recursive
                0x00000000        0x2 c:/nxp/mcuxpressoide_11.2.0_4120/ide/plugins/com.nxp.mcuxpresso.tools.win32_11.2.0.202001021529/tools/bin/../lib/gcc/arm-none-eabi/9.2.1/../../../../arm-none-eabi/lib/thumb/v7e-m+dp/hard\libc_nano.a(lib_a-lock.o)
 .text.__retarget_lock_acquire
                0x00000000        0x2 c:/nxp/mcuxpressoide_11.2.0_4120/ide/plugins/com.nxp.mcuxpresso.tools.win32_11.2.0.202001021529/tools/bin/../lib/gcc/arm-none-eabi/9.2.1/../../../../arm-none-eabi/lib/thumb/v7e-m+dp/hard\libc_nano.a(lib_a-lock.o)
 .text.__retarget_lock_acquire_recursive
                0x00000000        0x2 c:/nxp/mcuxpressoide_11.2.0_4120/ide/plugins/com.nxp.mcuxpresso.tools.win32_11.2.0.202001021529/tools/bin/../lib/gcc/arm-none-eabi/9.2.1/../../../../arm-none-eabi/lib/thumb/v7e-m+dp/hard\libc_nano.a(lib_a-lock.o)
 .text.__retarget_lock_try_acquire
                0x00000000        0x4 c:/nxp/mcuxpressoide_11.2.0_4120/ide/plugins/com.nxp.mcuxpresso.tools.win32_11.2.0.202001021529/tools/bin/../lib/gcc/arm-none-eabi/9.2.1/../../../../arm-none-eabi/lib/thumb/v7e-m+dp/hard\libc_nano.a(lib_a-lock.o)
 .text.__retarget_lock_try_acquire_recursive
                0x00000000        0x4 c:/nxp/mcuxpressoide_11.2.0_4120/ide/plugins/com.nxp.mcuxpresso.tools.win32_11.2.0.202001021529/tools/bin/../lib/gcc/arm-none-eabi/9.2.1/../../../../arm-none-eabi/lib/thumb/v7e-m+dp/hard\libc_nano.a(lib_a-lock.o)
 .text.__retarget_lock_release
                0x00000000        0x2 c:/nxp/mcuxpressoide_11.2.0_4120/ide/plugins/com.nxp.mcuxpresso.tools.win32_11.2.0.202001021529/tools/bin/../lib/gcc/arm-none-eabi/9.2.1/../../../../arm-none-eabi/lib/thumb/v7e-m+dp/hard\libc_nano.a(lib_a-lock.o)
 .text.__retarget_lock_release_recursive
                0x00000000        0x2 c:/nxp/mcuxpressoide_11.2.0_4120/ide/plugins/com.nxp.mcuxpresso.tools.win32_11.2.0.202001021529/tools/bin/../lib/gcc/arm-none-eabi/9.2.1/../../../../arm-none-eabi/lib/thumb/v7e-m+dp/hard\libc_nano.a(lib_a-lock.o)
 .debug_frame   0x00000000       0xb0 c:/nxp/mcuxpressoide_11.2.0_4120/ide/plugins/com.nxp.mcuxpresso.tools.win32_11.2.0.202001021529/tools/bin/../lib/gcc/arm-none-eabi/9.2.1/../../../../arm-none-eabi/lib/thumb/v7e-m+dp/hard\libc_nano.a(lib_a-lock.o)
 .ARM.attributes
                0x00000000       0x32 c:/nxp/mcuxpressoide_11.2.0_4120/ide/plugins/com.nxp.mcuxpresso.tools.win32_11.2.0.202001021529/tools/bin/../lib/gcc/arm-none-eabi/9.2.1/../../../../arm-none-eabi/lib/thumb/v7e-m+dp/hard\libc_nano.a(lib_a-lock.o)
 COMMON         0x00000000        0x9 c:/nxp/mcuxpressoide_11.2.0_4120/ide/plugins/com.nxp.mcuxpresso.tools.win32_11.2.0.202001021529/tools/bin/../lib/gcc/arm-none-eabi/9.2.1/../../../../arm-none-eabi/lib/thumb/v7e-m+dp/hard\libc_nano.a(lib_a-lock.o)
 .text          0x00000000        0x0 c:/nxp/mcuxpressoide_11.2.0_4120/ide/plugins/com.nxp.mcuxpresso.tools.win32_11.2.0.202001021529/tools/bin/../lib/gcc/arm-none-eabi/9.2.1/../../../../arm-none-eabi/lib/thumb/v7e-m+dp/hard\libcr_newlib_none.a(_cr_sbrk.o)
 .data          0x00000000        0x0 c:/nxp/mcuxpressoide_11.2.0_4120/ide/plugins/com.nxp.mcuxpresso.tools.win32_11.2.0.202001021529/tools/bin/../lib/gcc/arm-none-eabi/9.2.1/../../../../arm-none-eabi/lib/thumb/v7e-m+dp/hard\libcr_newlib_none.a(_cr_sbrk.o)
 .bss           0x00000000        0x0 c:/nxp/mcuxpressoide_11.2.0_4120/ide/plugins/com.nxp.mcuxpresso.tools.win32_11.2.0.202001021529/tools/bin/../lib/gcc/arm-none-eabi/9.2.1/../../../../arm-none-eabi/lib/thumb/v7e-m+dp/hard\libcr_newlib_none.a(_cr_sbrk.o)
 .text._sbrk    0x00000000       0x3c c:/nxp/mcuxpressoide_11.2.0_4120/ide/plugins/com.nxp.mcuxpresso.tools.win32_11.2.0.202001021529/tools/bin/../lib/gcc/arm-none-eabi/9.2.1/../../../../arm-none-eabi/lib/thumb/v7e-m+dp/hard\libcr_newlib_none.a(_cr_sbrk.o)
 .bss.__end_of_heap
                0x00000000        0x4 c:/nxp/mcuxpressoide_11.2.0_4120/ide/plugins/com.nxp.mcuxpresso.tools.win32_11.2.0.202001021529/tools/bin/../lib/gcc/arm-none-eabi/9.2.1/../../../../arm-none-eabi/lib/thumb/v7e-m+dp/hard\libcr_newlib_none.a(_cr_sbrk.o)
 .comment       0x00000000       0x7a c:/nxp/mcuxpressoide_11.2.0_4120/ide/plugins/com.nxp.mcuxpresso.tools.win32_11.2.0.202001021529/tools/bin/../lib/gcc/arm-none-eabi/9.2.1/../../../../arm-none-eabi/lib/thumb/v7e-m+dp/hard\libcr_newlib_none.a(_cr_sbrk.o)
 .ARM.attributes
                0x00000000       0x32 c:/nxp/mcuxpressoide_11.2.0_4120/ide/plugins/com.nxp.mcuxpresso.tools.win32_11.2.0.202001021529/tools/bin/../lib/gcc/arm-none-eabi/9.2.1/../../../../arm-none-eabi/lib/thumb/v7e-m+dp/hard\libcr_newlib_none.a(_cr_sbrk.o)
 .text          0x00000000        0x0 c:/nxp/mcuxpressoide_11.2.0_4120/ide/plugins/com.nxp.mcuxpresso.tools.win32_11.2.0.202001021529/tools/bin/../lib/gcc/arm-none-eabi/9.2.1/../../../../arm-none-eabi/lib/thumb/v7e-m+dp/hard\libcr_newlib_none.a(_cr_check_heap.o)
 .data          0x00000000        0x0 c:/nxp/mcuxpressoide_11.2.0_4120/ide/plugins/com.nxp.mcuxpresso.tools.win32_11.2.0.202001021529/tools/bin/../lib/gcc/arm-none-eabi/9.2.1/../../../../arm-none-eabi/lib/thumb/v7e-m+dp/hard\libcr_newlib_none.a(_cr_check_heap.o)
 .bss           0x00000000        0x0 c:/nxp/mcuxpressoide_11.2.0_4120/ide/plugins/com.nxp.mcuxpresso.tools.win32_11.2.0.202001021529/tools/bin/../lib/gcc/arm-none-eabi/9.2.1/../../../../arm-none-eabi/lib/thumb/v7e-m+dp/hard\libcr_newlib_none.a(_cr_check_heap.o)
 .text.__check_heap_overflow
                0x00000000       0x18 c:/nxp/mcuxpressoide_11.2.0_4120/ide/plugins/com.nxp.mcuxpresso.tools.win32_11.2.0.202001021529/tools/bin/../lib/gcc/arm-none-eabi/9.2.1/../../../../arm-none-eabi/lib/thumb/v7e-m+dp/hard\libcr_newlib_none.a(_cr_check_heap.o)
 .comment       0x00000000       0x7a c:/nxp/mcuxpressoide_11.2.0_4120/ide/plugins/com.nxp.mcuxpresso.tools.win32_11.2.0.202001021529/tools/bin/../lib/gcc/arm-none-eabi/9.2.1/../../../../arm-none-eabi/lib/thumb/v7e-m+dp/hard\libcr_newlib_none.a(_cr_check_heap.o)
 .ARM.attributes
                0x00000000       0x32 c:/nxp/mcuxpressoide_11.2.0_4120/ide/plugins/com.nxp.mcuxpresso.tools.win32_11.2.0.202001021529/tools/bin/../lib/gcc/arm-none-eabi/9.2.1/../../../../arm-none-eabi/lib/thumb/v7e-m+dp/hard\libcr_newlib_none.a(_cr_check_heap.o)
 .text          0x00000000        0x0 c:/nxp/mcuxpressoide_11.2.0_4120/ide/plugins/com.nxp.mcuxpresso.tools.win32_11.2.0.202001021529/tools/bin/../lib/gcc/arm-none-eabi/9.2.1/../../../../arm-none-eabi/lib/thumb/v7e-m+dp/hard\libc_nano.a(lib_a-errno.o)
 .data          0x00000000        0x0 c:/nxp/mcuxpressoide_11.2.0_4120/ide/plugins/com.nxp.mcuxpresso.tools.win32_11.2.0.202001021529/tools/bin/../lib/gcc/arm-none-eabi/9.2.1/../../../../arm-none-eabi/lib/thumb/v7e-m+dp/hard\libc_nano.a(lib_a-errno.o)
 .bss           0x00000000        0x0 c:/nxp/mcuxpressoide_11.2.0_4120/ide/plugins/com.nxp.mcuxpresso.tools.win32_11.2.0.202001021529/tools/bin/../lib/gcc/arm-none-eabi/9.2.1/../../../../arm-none-eabi/lib/thumb/v7e-m+dp/hard\libc_nano.a(lib_a-errno.o)
 .text.__errno  0x00000000        0xc c:/nxp/mcuxpressoide_11.2.0_4120/ide/plugins/com.nxp.mcuxpresso.tools.win32_11.2.0.202001021529/tools/bin/../lib/gcc/arm-none-eabi/9.2.1/../../../../arm-none-eabi/lib/thumb/v7e-m+dp/hard\libc_nano.a(lib_a-errno.o)
 .debug_frame   0x00000000       0x20 c:/nxp/mcuxpressoide_11.2.0_4120/ide/plugins/com.nxp.mcuxpresso.tools.win32_11.2.0.202001021529/tools/bin/../lib/gcc/arm-none-eabi/9.2.1/../../../../arm-none-eabi/lib/thumb/v7e-m+dp/hard\libc_nano.a(lib_a-errno.o)
 .ARM.attributes
                0x00000000       0x32 c:/nxp/mcuxpressoide_11.2.0_4120/ide/plugins/com.nxp.mcuxpresso.tools.win32_11.2.0.202001021529/tools/bin/../lib/gcc/arm-none-eabi/9.2.1/../../../../arm-none-eabi/lib/thumb/v7e-m+dp/hard\libc_nano.a(lib_a-errno.o)

Memory Configuration

Name             Origin             Length             Attributes
m_flash_config   0x60000000         0x00001000         xr
m_ivt            0x60001000         0x00001000         xr
m_interrupts     0x60002000         0x00000400         xr
m_text           0x60002400         0x00039fff         xr
m_data           0x20208000         0x00017fff         rw
*default*        0x00000000         0xffffffff

Linker script and memory map

LOAD ./usb/phy/usb_phy.o
LOAD ./usb/device/source/ehci/usb_device_ehci.o
LOAD ./usb/device/source/usb_device_ch9.o
LOAD ./usb/device/source/usb_device_dci.o
LOAD ./usb/device/class/hid/usb_device_hid.o
LOAD ./usb/device/class/usb_device_class.o
LOAD ./startup/crt0_gcc.o
LOAD ./startup/startup.o
LOAD ./startup/startup_MIMXRT1062.o
LOAD ./source/utilities/src/debug_util.o
LOAD ./source/utilities/src/fsl_assert.o
LOAD ./source/utilities/src/fsl_rtos_abstraction.o
LOAD ./source/usb/bm_composite/composite.o
LOAD ./source/usb/bm_composite/hid_bootloader.o
LOAD ./source/usb/bm_composite/usb_descriptor.o
LOAD ./source/sbloader/src/sbloader.o
LOAD ./source/property/src/property_imx.o
LOAD ./source/packet/src/serial_packet.o
LOAD ./source/memory/src/flexspi_nor_memory.o
LOAD ./source/memory/src/memory.o
LOAD ./source/memory/src/mmc_memory.o
LOAD ./source/memory/src/normal_memory.o
LOAD ./source/memory/src/pattern_fill_gcc.o
LOAD ./source/memory/src/sd_memory.o
LOAD ./source/memory/src/semc_nand_memory.o
LOAD ./source/memory/src/semc_nor_memory.o
LOAD ./source/memory/src/spi_nor_eeprom_memory.o
LOAD ./source/memory/src/spinand_memory.o
LOAD ./source/memory/src/sram_init_MIMXRT1062.o
LOAD ./source/drivers/usdhc/bl_usdhc.o
LOAD ./source/drivers/trng/bl_trng.o
LOAD ./source/drivers/serial_nor_eeprom/serial_nor_eeprom.o
LOAD ./source/drivers/semc_nor/semc_nor_flash.o
LOAD ./source/drivers/semc_nand/semc_nand_flash.o
LOAD ./source/drivers/semc/bl_semc.o
LOAD ./source/drivers/sdmmc/bl_host.o
LOAD ./source/drivers/sdmmc/bl_mmc.o
LOAD ./source/drivers/sdmmc/bl_sd.o
LOAD ./source/drivers/sdmmc/bl_sdmmc.o
LOAD ./source/drivers/ocotp/bl_ocotp.o
LOAD ./source/drivers/nand_ecc/nand_ecc.o
LOAD ./source/drivers/microseconds/microseconds_pit.o
LOAD ./source/drivers/flexspi_nor/flexspi_nor_flash.o
LOAD ./source/drivers/flexspi_nand/flexspi_nand_flash.o
LOAD ./source/drivers/flexspi/bl_flexspi.o
LOAD ./source/drivers/dcp/bl_dcp.o
LOAD ./source/crc/crc16.o
LOAD ./source/crc/crc32.o
LOAD ./source/bootloader/src/bl_app_crc_check.o
LOAD ./source/bootloader/src/bl_command.o
LOAD ./source/bootloader/src/bl_context.o
LOAD ./source/bootloader/src/bl_exception_handler.o
LOAD ./source/bootloader/src/bl_keyblob.o
LOAD ./source/bootloader/src/bl_keyblob_dcp.o
LOAD ./source/bootloader/src/bl_main.o
LOAD ./source/bootloader/src/bl_misc.o
LOAD ./source/bootloader/src/bl_nor_encrypt_bee.o
LOAD ./source/bootloader/src/bl_reliable_update_common.o
LOAD ./source/bootloader/src/bl_shutdown_cleanup.o
LOAD ./source/bootloader/src/bl_tree_root.o
LOAD ./source/bootloader/src/bl_user_entry.o
LOAD ./source/bootloader/src/lpuart_peripheral_interface.o
LOAD ./source/bootloader/src/usb_hid_msc_peripheral_interface.o
LOAD ./source/autobaud/autobaud_irq.o
LOAD ./source/semihost_hardfault.o
LOAD ./drivers/fsl_clock.o
LOAD ./drivers/fsl_common.o
LOAD ./drivers/fsl_gpio.o
LOAD ./drivers/fsl_lpspi.o
LOAD ./drivers/fsl_lpuart.o
LOAD ./device/system_MIMXRT1062.o
LOAD ./component/osa/fsl_os_abstraction_bm.o
LOAD ./component/lists/generic_list.o
LOAD ./board/pin_mux.o
LOAD ./MIMXRT1062/bl_api.o
LOAD ./MIMXRT1062/bl_clock_config_MIMXRT1062.o
LOAD ./MIMXRT1062/bl_lpuart_irq_config_MIMXRT1062.o
LOAD ./MIMXRT1062/bl_peripherals_MIMXRT1062.o
LOAD ./MIMXRT1062/external_memory_property_map_MIMXRT1062.o
LOAD ./MIMXRT1062/flexspi_nand_config_MIMXRT1062.o
LOAD ./MIMXRT1062/flexspi_nor_config_MIMXRT1062.o
LOAD ./MIMXRT1062/hardware_init_MIMXRT1062.o
LOAD ./MIMXRT1062/memory_map_MIMXRT1062.o
LOAD ./MIMXRT1062/pinmux_utility_imxrt_series.o
LOAD ./MIMXRT1062/sdmmc_config_MIMXRT1062.o
LOAD ./MIMXRT1062/semc_nand_config_MIMXRT1062.o
LOAD ./MIMXRT1062/semc_nor_config_MIMXRT1062.o
                0x00000000                HEAP_SIZE = DEFINED (__heap_size__)?__heap_size__:0x0
                0x00002000                STACK_SIZE = DEFINED (__stack_size__)?__stack_size__:0x2000
START GROUP
LOAD c:/nxp/mcuxpressoide_11.2.0_4120/ide/plugins/com.nxp.mcuxpresso.tools.win32_11.2.0.202001021529/tools/bin/../lib/gcc/arm-none-eabi/9.2.1/../../../../arm-none-eabi/lib/thumb/v7e-m+dp/hard\libnosys.a
LOAD c:/nxp/mcuxpressoide_11.2.0_4120/ide/plugins/com.nxp.mcuxpresso.tools.win32_11.2.0.202001021529/tools/bin/../lib/gcc/arm-none-eabi/9.2.1/thumb/v7e-m+dp/hard\libgcc.a
LOAD c:/nxp/mcuxpressoide_11.2.0_4120/ide/plugins/com.nxp.mcuxpresso.tools.win32_11.2.0.202001021529/tools/bin/../lib/gcc/arm-none-eabi/9.2.1/../../../../arm-none-eabi/lib/thumb/v7e-m+dp/hard\libc_nano.a
LOAD c:/nxp/mcuxpressoide_11.2.0_4120/ide/plugins/com.nxp.mcuxpresso.tools.win32_11.2.0.202001021529/tools/bin/../lib/gcc/arm-none-eabi/9.2.1/../../../../arm-none-eabi/lib/thumb/v7e-m+dp/hard\libm.a
LOAD c:/nxp/mcuxpressoide_11.2.0_4120/ide/plugins/com.nxp.mcuxpresso.tools.win32_11.2.0.202001021529/tools/bin/../lib/gcc/arm-none-eabi/9.2.1/../../../../arm-none-eabi/lib/thumb/v7e-m+dp/hard\libcr_newlib_none.a
END GROUP

.flash_config   0x60000000      0x200
                0x60000000                . = ALIGN (0x4)
                0x60000000                __FLASH_BASE = .
 *(SORT_BY_ALIGNMENT(.boot_hdr.conf))
 .boot_hdr.conf
                0x60000000      0x200 ./MIMXRT1062/hardware_init_MIMXRT1062.o
                0x60000000                qspiflash_config
                0x60000200                . = ALIGN (0x4)
                0x60001000                ivt_begin = (ORIGIN (m_flash_config) + LENGTH (m_flash_config))

.ivt            0x60001000       0x30
                0x60001000                . = ALIGN (0x4)
 *(SORT_BY_ALIGNMENT(.boot_hdr.ivt))
 .boot_hdr.ivt  0x60001000       0x20 ./MIMXRT1062/hardware_init_MIMXRT1062.o
                0x60001000                image_vector_table
 *(SORT_BY_ALIGNMENT(.boot_hdr.boot_data))
 .boot_hdr.boot_data
                0x60001020       0x10 ./MIMXRT1062/hardware_init_MIMXRT1062.o
                0x60001020                boot_data
                0x60001030                . = ALIGN (0x4)

.interrupts     0x60002000      0x400
                0x60002000                __VECTOR_TABLE = .
                0x60002000                __Vectors = .
                0x60002000                . = ALIGN (0x4)
 *(SORT_BY_ALIGNMENT(.isr_vector))
 .isr_vector    0x60002000      0x400 ./startup/startup_MIMXRT1062.o
                0x60002000                __isr_vector
                0x60002400                . = ALIGN (0x4)
                0x60002000                __VECTOR_RAM = __VECTOR_TABLE
                0x00000000                __RAM_VECTOR_TABLE_SIZE_BYTES = 0x0

.text           0x60002400     0x6f24
                0x60002400                . = ALIGN (0x4)
 *(SORT_BY_ALIGNMENT(.text))
 .text          0x60002400       0x68 ./startup/crt0_gcc.o
                0x60002400                Reset_Handler
 .text          0x60002468      0x214 ./startup/startup_MIMXRT1062.o
                0x600024b0                USB_PHY1_IRQHandler
                0x600024b0                PWM1_3_IRQHandler
                0x600024b0                FLEXSPI2_DriverIRQHandler
                0x600024b0                SJC_IRQHandler
                0x600024b0                ADC_ETC_IRQ0_IRQHandler
                0x600024b0                DebugMon_Handler
                0x600024b0                SAI3_RX_DriverIRQHandler
                0x600024b0                PXP_IRQHandler
                0x600024b0                DMA13_DMA29_DriverIRQHandler
                0x600024b0                Reserved86_IRQHandler
                0x600024b0                SRC_IRQHandler
                0x600024b0                CTI1_ERROR_IRQHandler
                0x600024b0                GPIO2_Combined_0_15_IRQHandler
                0x600024b0                SPDIF_DriverIRQHandler
                0x600024b0                GPIO1_INT2_IRQHandler
                0x600024b0                CSI_IRQHandler
                0x600024b0                ANATOP_EVENT1_IRQHandler
                0x600024b0                ENET2_DriverIRQHandler
                0x600024b0                SNVS_LP_WRAPPER_IRQHandler
                0x600024b0                ENC2_IRQHandler
                0x600024b0                PWM2_2_IRQHandler
                0x600024b0                ANATOP_TEMP_PANIC_IRQHandler
                0x600024b0                PWM3_FAULT_IRQHandler
                0x600024b0                LCDIF_IRQHandler
                0x600024b0                PWM4_FAULT_IRQHandler
                0x600024b0                TRNG_IRQHandler
                0x600024b0                GPIO1_INT7_IRQHandler
                0x600024b0                CCM_1_IRQHandler
                0x600024b0                TMR1_IRQHandler
                0x600024b0                ADC_ETC_IRQ1_IRQHandler
                0x600024b0                CAN1_DriverIRQHandler
                0x600024b0                PWM4_0_IRQHandler
                0x600024b0                DMA_ERROR_DriverIRQHandler
                0x600024b0                CANFD_DriverIRQHandler
                0x600024b0                DMA7_DMA23_DriverIRQHandler
                0x600024b0                CTI0_ERROR_IRQHandler
                0x600024b0                GPIO5_Combined_0_15_IRQHandler
                0x600024b0                PWM1_0_IRQHandler
                0x600024b0                Reserved68_IRQHandler
                0x600024b0                LPI2C3_DriverIRQHandler
                0x600024b0                LPI2C2_DriverIRQHandler
                0x600024b0                USB_PHY2_IRQHandler
                0x600024b0                ENC4_IRQHandler
                0x600024b0                TSC_DIG_IRQHandler
                0x600024b0                GPIO4_Combined_16_31_IRQHandler
                0x600024b0                GPIO4_Combined_0_15_IRQHandler
                0x600024b0                DMA15_DMA31_DriverIRQHandler
                0x600024b0                PWM2_0_IRQHandler
                0x600024b0                DCP_VMI_IRQHandler
                0x600024b0                Reserved87_IRQHandler
                0x600024b0                DMA14_DMA30_DriverIRQHandler
                0x600024b0                ENET1_1588_Timer_DriverIRQHandler
                0x600024b0                BusFault_Handler
                0x600024b0                PWM2_1_IRQHandler
                0x600024b0                ACMP1_IRQHandler
                0x600024b0                PWM2_FAULT_IRQHandler
                0x600024b0                FLEXIO2_DriverIRQHandler
                0x600024b0                UsageFault_Handler
                0x600024b0                WDOG1_IRQHandler
                0x600024b0                DMA5_DMA21_DriverIRQHandler
                0x600024b0                GPT1_IRQHandler
                0x600024b0                FLEXRAM_IRQHandler
                0x600024b0                PWM4_1_IRQHandler
                0x600024b0                USB_OTG2_IRQHandler
                0x600024b0                ACMP4_IRQHandler
                0x600024b0                SEMC_IRQHandler
                0x600024b0                DMA0_DMA16_DriverIRQHandler
                0x600024b0                DefaultISR
                0x600024b0                PWM1_1_IRQHandler
                0x600024b0                GPT2_IRQHandler
                0x600024b0                DMA2_DMA18_DriverIRQHandler
                0x600024b0                PWM3_0_IRQHandler
                0x600024b0                PWM3_3_IRQHandler
                0x600024b0                GPIO1_INT0_IRQHandler
                0x600024b0                ACMP2_IRQHandler
                0x600024b0                CSU_IRQHandler
                0x600024b0                SAI3_TX_DriverIRQHandler
                0x600024b0                ADC1_IRQHandler
                0x600024b0                FLEXIO1_DriverIRQHandler
                0x600024b0                SNVS_HP_WRAPPER_TZ_IRQHandler
                0x600024b0                GPIO1_Combined_16_31_IRQHandler
                0x600024b0                XBAR1_IRQ_0_1_IRQHandler
                0x600024b0                RTWDOG_IRQHandler
                0x600024b0                SAI1_DriverIRQHandler
                0x600024b0                DMA12_DMA28_DriverIRQHandler
                0x600024b0                ENC3_IRQHandler
                0x600024b0                GPIO3_Combined_16_31_IRQHandler
                0x600024b0                EWM_IRQHandler
                0x600024b0                TMR3_IRQHandler
                0x600024b0                WDOG2_IRQHandler
                0x600024b0                GPIO1_INT5_IRQHandler
                0x600024b0                FLEXSPI_DriverIRQHandler
                0x600024b0                LPI2C4_DriverIRQHandler
                0x600024b0                PWM3_1_IRQHandler
                0x600024b0                ANATOP_TAMP_LOW_HIGH_IRQHandler
                0x600024b0                PWM2_3_IRQHandler
                0x600024b0                GPIO2_Combined_16_31_IRQHandler
                0x600024b0                CORE_IRQHandler
                0x600024b0                ANATOP_EVENT0_IRQHandler
                0x600024b0                ENET1_DriverIRQHandler
                0x600024b0                DMA10_DMA26_DriverIRQHandler
                0x600024b0                Reserved172_IRQHandler
                0x600024b0                GPIO1_INT6_IRQHandler
                0x600024b0                PWM1_2_IRQHandler
                0x600024b0                Reserved144_IRQHandler
                0x600024b0                GPR_IRQ_IRQHandler
                0x600024b0                GPC_IRQHandler
                0x600024b0                DCDC_IRQHandler
                0x600024b0                GPIO3_Combined_0_15_IRQHandler
                0x600024b0                PWM4_3_IRQHandler
                0x600024b0                Reserved143_IRQHandler
                0x600024b0                Reserved173_IRQHandler
                0x600024b0                DMA1_DMA17_DriverIRQHandler
                0x600024b0                CAN2_DriverIRQHandler
                0x600024b0                PWM1_FAULT_IRQHandler
                0x600024b0                GPIO5_Combined_16_31_IRQHandler
                0x600024b0                TMR2_IRQHandler
                0x600024b0                ADC_ETC_ERROR_IRQ_IRQHandler
                0x600024b0                DMA8_DMA24_DriverIRQHandler
                0x600024b0                PWM4_2_IRQHandler
                0x600024b0                DMA6_DMA22_DriverIRQHandler
                0x600024b0                BEE_IRQHandler
                0x600024b0                GPIO1_INT1_IRQHandler
                0x600024b0                ENC1_IRQHandler
                0x600024b0                ADC_ETC_IRQ2_IRQHandler
                0x600024b0                GPIO1_INT4_IRQHandler
                0x600024b0                CCM_2_IRQHandler
                0x600024b0                KPP_IRQHandler
                0x600024b0                ACMP3_IRQHandler
                0x600024b0                ADC2_IRQHandler
                0x600024b0                MemManage_Handler
                0x600024b0                SAI2_DriverIRQHandler
                0x600024b0                TMR4_IRQHandler
                0x600024b0                PIT_IRQHandler
                0x600024b0                Reserved115_IRQHandler
                0x600024b0                SNVS_HP_WRAPPER_IRQHandler
                0x600024b0                DMA3_DMA19_DriverIRQHandler
                0x600024b0                DMA11_DMA27_DriverIRQHandler
                0x600024b0                DMA9_DMA25_DriverIRQHandler
                0x600024b0                SJC_ARM_DEBUG_IRQHandler
                0x600024b0                XBAR1_IRQ_2_3_IRQHandler
                0x600024b0                PWM3_2_IRQHandler
                0x600024b0                GPIO1_INT3_IRQHandler
                0x600024b0                LPI2C1_DriverIRQHandler
                0x600024b0                DCP_IRQHandler
                0x600024b0                ENET2_1588_Timer_DriverIRQHandler
                0x600024b0                Reserved171_IRQHandler
                0x600024b0                DMA4_DMA20_DriverIRQHandler
                0x600024b4                NMI_Handler
                0x600024bc                SVC_Handler
                0x600024c0                PendSV_Handler
                0x600024c4                SysTick_Handler
                0x600024c8                NMI_WAKEUP_IRQHandler
                0x600024cc                DMA0_DMA16_IRQHandler
                0x600024d0                DMA1_DMA17_IRQHandler
                0x600024d4                DMA2_DMA18_IRQHandler
                0x600024d8                DMA3_DMA19_IRQHandler
                0x600024dc                DMA4_DMA20_IRQHandler
                0x600024e0                DMA5_DMA21_IRQHandler
                0x600024e4                DMA6_DMA22_IRQHandler
                0x600024e8                DMA7_DMA23_IRQHandler
                0x600024ec                DMA8_DMA24_IRQHandler
                0x600024f0                DMA9_DMA25_IRQHandler
                0x600024f4                DMA10_DMA26_IRQHandler
                0x600024f8                DMA11_DMA27_IRQHandler
                0x600024fc                DMA12_DMA28_IRQHandler
                0x60002500                DMA13_DMA29_IRQHandler
                0x60002504                DMA14_DMA30_IRQHandler
                0x60002508                DMA15_DMA31_IRQHandler
                0x6000250c                DMA_ERROR_IRQHandler
                0x60002514                LPUART2_IRQHandler
                0x60002518                LPUART3_IRQHandler
                0x6000251c                LPUART4_IRQHandler
                0x60002520                LPUART5_IRQHandler
                0x60002524                LPUART6_IRQHandler
                0x60002528                LPUART7_IRQHandler
                0x6000252c                LPUART8_IRQHandler
                0x60002530                LPI2C1_IRQHandler
                0x60002534                LPI2C2_IRQHandler
                0x60002538                LPI2C3_IRQHandler
                0x6000253c                LPI2C4_IRQHandler
                0x60002540                LPSPI1_IRQHandler
                0x60002544                LPSPI2_IRQHandler
                0x60002548                LPSPI3_IRQHandler
                0x6000254c                LPSPI4_IRQHandler
                0x60002550                CAN1_IRQHandler
                0x60002554                CAN2_IRQHandler
                0x60002558                SAI1_IRQHandler
                0x6000255c                SAI2_IRQHandler
                0x60002560                SAI3_RX_IRQHandler
                0x60002564                SAI3_TX_IRQHandler
                0x60002568                SPDIF_IRQHandler
                0x6000256c                FLEXIO1_IRQHandler
                0x60002570                FLEXIO2_IRQHandler
                0x60002574                FLEXSPI2_IRQHandler
                0x60002578                FLEXSPI_IRQHandler
                0x6000257c                USDHC1_IRQHandler
                0x60002580                USDHC2_IRQHandler
                0x60002584                ENET1_IRQHandler
                0x60002588                ENET1_1588_Timer_IRQHandler
                0x6000258c                ENET2_IRQHandler
                0x60002590                ENET2_1588_Timer_IRQHandler
                0x60002594                CANFD_IRQHandler
 .text          0x6000267c       0x7c ./source/memory/src/pattern_fill_gcc.o
                0x6000267c                pattern_fill
 .text          0x600026f8       0x30 c:/nxp/mcuxpressoide_11.2.0_4120/ide/plugins/com.nxp.mcuxpresso.tools.win32_11.2.0.202001021529/tools/bin/../lib/gcc/arm-none-eabi/9.2.1/thumb/v7e-m+dp/hard\libgcc.a(_aeabi_uldivmod.o)
                0x600026f8                __aeabi_uldivmod
 .text          0x60002728      0x2c4 c:/nxp/mcuxpressoide_11.2.0_4120/ide/plugins/com.nxp.mcuxpresso.tools.win32_11.2.0.202001021529/tools/bin/../lib/gcc/arm-none-eabi/9.2.1/thumb/v7e-m+dp/hard\libgcc.a(_udivmoddi4.o)
                0x60002728                __udivmoddi4
 .text          0x600029ec        0x4 c:/nxp/mcuxpressoide_11.2.0_4120/ide/plugins/com.nxp.mcuxpresso.tools.win32_11.2.0.202001021529/tools/bin/../lib/gcc/arm-none-eabi/9.2.1/thumb/v7e-m+dp/hard\libgcc.a(_dvmd_tls.o)
                0x600029ec                __aeabi_idiv0
                0x600029ec                __aeabi_ldiv0
 *(SORT_BY_ALIGNMENT(.text*))
 .text.ocotp_init
                0x600029f0       0x84 ./source/drivers/ocotp/bl_ocotp.o
                0x600029f0                ocotp_init
 .text.USB_DeviceEhciTransfer
                0x60002a74      0x21c ./usb/device/source/ehci/usb_device_ehci.o
 .text.USB_DeviceEhciCancelControlPipe
                0x60002c90       0xd0 ./usb/device/source/ehci/usb_device_ehci.o
 .text.USB_DeviceEhciInit
                0x60002d60       0xd0 ./usb/device/source/ehci/usb_device_ehci.o
                0x60002d60                USB_DeviceEhciInit
 .text.USB_DeviceEhciDeinit
                0x60002e30       0x4c ./usb/device/source/ehci/usb_device_ehci.o
                0x60002e30                USB_DeviceEhciDeinit
 .text.USB_DeviceEhciCancel
                0x60002e7c      0x128 ./usb/device/source/ehci/usb_device_ehci.o
                0x60002e7c                USB_DeviceEhciCancel
 .text.USB_DeviceControlCallback
                0x60002fa4      0x1b0 ./usb/device/source/usb_device_ch9.o
 .text.USB_DeviceControlPipeInit
                0x60003154       0x4c ./usb/device/source/usb_device_ch9.o
                0x60003154                USB_DeviceControlPipeInit
 .text.USB_DeviceInit
                0x600031a0       0xf8 ./usb/device/source/usb_device_dci.o
                0x600031a0                USB_DeviceInit
 .text.USB_DeviceHidEndpointsInit
                0x60003298       0xe8 ./usb/device/class/hid/usb_device_hid.o
 .text.USB_DeviceHidInit
                0x60003380       0x30 ./usb/device/class/hid/usb_device_hid.o
                0x60003380                USB_DeviceHidInit
 .text.USB_DeviceClassGetHandleByDeviceHandle
                0x600033b0       0x44 ./usb/device/class/usb_device_class.o
 .text.USB_DeviceClassFreeHandle
                0x600033f4       0x50 ./usb/device/class/usb_device_class.o
 .text.USB_DeviceClassGetHandleByControllerId
                0x60003444       0x48 ./usb/device/class/usb_device_class.o
 .text.USB_DeviceClassGetDeviceHandle
                0x6000348c       0x40 ./usb/device/class/usb_device_class.o
                0x6000348c                USB_DeviceClassGetDeviceHandle
 .text.USB_DeviceClassEvent
                0x600034cc       0x74 ./usb/device/class/usb_device_class.o
                0x600034cc                USB_DeviceClassEvent
 .text.USB_DeviceClassInit
                0x60003540       0xe8 ./usb/device/class/usb_device_class.o
                0x60003540                USB_DeviceClassInit
 .text.init_data_bss
                0x60003628       0x6c ./startup/startup.o
                0x60003628                init_data_bss
 .text.init_interrupts
                0x60003694       0x4c ./startup/startup.o
                0x60003694                init_interrupts
 .text.sync_wait
                0x600036e0       0x28 ./source/utilities/src/fsl_rtos_abstraction.o
                0x600036e0                sync_wait
 .text.sync_signal
                0x60003708       0x20 ./source/utilities/src/fsl_rtos_abstraction.o
                0x60003708                sync_signal
 .text.lock_acquire
                0x60003728        0xc ./source/utilities/src/fsl_rtos_abstraction.o
                0x60003728                lock_acquire
 .text.lock_release
                0x60003734        0xc ./source/utilities/src/fsl_rtos_abstraction.o
                0x60003734                lock_release
 .text.usb_device_hid_generic_callback
                0x60003740       0x74 ./source/usb/bm_composite/hid_bootloader.o
                0x60003740                usb_device_hid_generic_callback
 .text.usb_device_hid_generic_set_configure
                0x600037b4       0x30 ./source/usb/bm_composite/hid_bootloader.o
                0x600037b4                usb_device_hid_generic_set_configure
 .text.usb_device_hid_generic_set_interface
                0x600037e4       0x24 ./source/usb/bm_composite/hid_bootloader.o
                0x600037e4                usb_device_hid_generic_set_interface
 .text.usb_device_hid_generic_init
                0x60003808        0xc ./source/usb/bm_composite/hid_bootloader.o
                0x60003808                usb_device_hid_generic_init
 .text.usb_device_hid_generic_deinit
                0x60003814       0x10 ./source/usb/bm_composite/hid_bootloader.o
                0x60003814                usb_device_hid_generic_deinit
 .text.usb_device_get_hid_report_descriptor
                0x60003824       0x18 ./source/usb/bm_composite/usb_descriptor.o
                0x60003824                usb_device_get_hid_report_descriptor
 .text.usb_device_get_device_descriptor
                0x6000383c       0x10 ./source/usb/bm_composite/usb_descriptor.o
                0x6000383c                usb_device_get_device_descriptor
 .text.usb_device_get_configuration_descriptor
                0x6000384c       0x18 ./source/usb/bm_composite/usb_descriptor.o
                0x6000384c                usb_device_get_configuration_descriptor
 .text.usb_device_get_string_descriptor
                0x60003864       0x40 ./source/usb/bm_composite/usb_descriptor.o
                0x60003864                usb_device_get_string_descriptor
 .text.usb_device_set_speed
                0x600038a4       0x6c ./source/usb/bm_composite/usb_descriptor.o
                0x600038a4                usb_device_set_speed
 .text.ldr_DoHeader
                0x60003910        0xc ./source/sbloader/src/sbloader.o
                0x60003910                ldr_DoHeader
 .text.ldr_DoHeader1
                0x6000391c       0x30 ./source/sbloader/src/sbloader.o
                0x6000391c                ldr_DoHeader1
 .text.ldr_DoLoadChunks
                0x6000394c       0x88 ./source/sbloader/src/sbloader.o
                0x6000394c                ldr_DoLoadChunks
 .text.ldr_DoLoadBytes
                0x600039d4       0x64 ./source/sbloader/src/sbloader.o
                0x600039d4                ldr_DoLoadBytes
 .text.ldr_GoToNextSection
                0x60003a38       0x24 ./source/sbloader/src/sbloader.o
                0x60003a38                ldr_GoToNextSection
 .text.ldr_DoLoadCmd
                0x60003a5c       0x24 ./source/sbloader/src/sbloader.o
                0x60003a5c                ldr_DoLoadCmd
 .text.ldr_DoFillCmd
                0x60003a80       0x14 ./source/sbloader/src/sbloader.o
                0x60003a80                ldr_DoFillCmd
 .text.ldr_DoProgramCmd
                0x60003a94       0x30 ./source/sbloader/src/sbloader.o
                0x60003a94                ldr_DoProgramCmd
 .text.ldr_DoEraseCmd
                0x60003ac4       0x34 ./source/sbloader/src/sbloader.o
                0x60003ac4                ldr_DoEraseCmd
 .text.ldr_DoMemEnableCmd
                0x60003af8       0x50 ./source/sbloader/src/sbloader.o
                0x60003af8                ldr_DoMemEnableCmd
 .text.sbloader_init
                0x60003b48       0x20 ./source/sbloader/src/sbloader.o
                0x60003b48                sbloader_init
 .text.sbloader_handle_chunk
                0x60003b68       0x30 ./source/sbloader/src/sbloader.o
                0x60003b68                sbloader_handle_chunk
 .text.sbloader_pump
                0x60003b98       0x50 ./source/sbloader/src/sbloader.o
                0x60003b98                sbloader_pump
 .text.sbloader_finalize
                0x60003be8       0xa0 ./source/sbloader/src/sbloader.o
                0x60003be8                sbloader_finalize
 .text.bootloader_property_set_uint32
                0x60003c88       0x48 ./source/property/src/property_imx.o
                0x60003c88                bootloader_property_set_uint32
 .text.bootloader_property_load_user_config
                0x60003cd0       0x38 ./source/property/src/property_imx.o
                0x60003cd0                bootloader_property_load_user_config
 .text.bootloader_property_init
                0x60003d08       0xb4 ./source/property/src/property_imx.o
                0x60003d08                bootloader_property_init
 .text.bootloader_get_external_memory_properties
                0x60003dbc       0x80 ./source/property/src/property_imx.o
                0x60003dbc                bootloader_get_external_memory_properties
 .text.bootloader_property_get
                0x60003e3c       0xb8 ./source/property/src/property_imx.o
                0x60003e3c                bootloader_property_get
 .text.flexspi_nor_memory_read
                0x60003ef4       0x24 ./source/memory/src/flexspi_nor_memory.o
 .text.is_flexspi_nor_mem_erased
                0x60003f18       0x54 ./source/memory/src/flexspi_nor_memory.o
 .text.flexspi_nor_memory_erase
                0x60003f6c       0x34 ./source/memory/src/flexspi_nor_memory.o
 .text.flexspi_nor_mem_read
                0x60003fa0       0x30 ./source/memory/src/flexspi_nor_memory.o
                0x60003fa0                flexspi_nor_mem_read
 .text.flexspi_nor_mem_erase
                0x60003fd0       0x98 ./source/memory/src/flexspi_nor_memory.o
                0x60003fd0                flexspi_nor_mem_erase
 .text.flexspi_nor_memory_check.constprop.0
                0x60004068       0x58 ./source/memory/src/flexspi_nor_memory.o
 .text.flexspi_nor_mem_flush
                0x600040c0       0xd4 ./source/memory/src/flexspi_nor_memory.o
                0x600040c0                flexspi_nor_mem_flush
 .text.flexspi_nor_mem_write
                0x60004194       0x94 ./source/memory/src/flexspi_nor_memory.o
                0x60004194                flexspi_nor_mem_write
 .text.flexspi_nor_mem_fill
                0x60004228       0x50 ./source/memory/src/flexspi_nor_memory.o
                0x60004228                flexspi_nor_mem_fill
 .text.flexspi_nor_get_property
                0x60004278       0x8c ./source/memory/src/flexspi_nor_memory.o
                0x60004278                flexspi_nor_get_property
 .text.flexspi_nor_mem_config.part.0
                0x60004304      0x19c ./source/memory/src/flexspi_nor_memory.o
 .text.flexspi_nor_mem_init
                0x600044a0       0x1c ./source/memory/src/flexspi_nor_memory.o
                0x600044a0                flexspi_nor_mem_init
 .text.flexspi_nor_mem_erase_all
                0x600044bc       0x50 ./source/memory/src/flexspi_nor_memory.o
                0x600044bc                flexspi_nor_mem_erase_all
 .text.mem_flush
                0x6000450c       0x14 ./source/memory/src/memory.o
                0x6000450c                mem_flush
 .text.mem_finalize
                0x60004520       0x14 ./source/memory/src/memory.o
                0x60004520                mem_finalize
 .text.mem_init
                0x60004534       0x2c ./source/memory/src/memory.o
                0x60004534                mem_init
 .text.find_map_entry
                0x60004560       0x48 ./source/memory/src/memory.o
                0x60004560                find_map_entry
 .text.find_external_map_entry
                0x600045a8       0x5c ./source/memory/src/memory.o
                0x600045a8                find_external_map_entry
 .text.mem_read
                0x60004604       0x5c ./source/memory/src/memory.o
                0x60004604                mem_read
 .text.find_external_map_index
                0x60004660       0x2c ./source/memory/src/memory.o
                0x60004660                find_external_map_index
 .text.mem_is_block_reserved
                0x6000468c       0x4c ./source/memory/src/memory.o
                0x6000468c                mem_is_block_reserved
 .text.mem_write
                0x600046d8       0x94 ./source/memory/src/memory.o
                0x600046d8                mem_write
 .text.USDHC1_DriverIRQHandler
                0x6000476c       0x18 ./source/drivers/usdhc/bl_usdhc.o
                0x6000476c                USDHC1_DriverIRQHandler
 .text.USDHC2_DriverIRQHandler
                0x60004784       0x18 ./source/drivers/usdhc/bl_usdhc.o
                0x60004784                USDHC2_DriverIRQHandler
 .text.trng_SetStatisticalCheckLimit
                0x6000479c      0x1b0 ./source/drivers/trng/bl_trng.o
 .text.TRNG_GetDefaultConfig
                0x6000494c       0x74 ./source/drivers/trng/bl_trng.o
                0x6000494c                TRNG_GetDefaultConfig
 .text.TRNG_Init
                0x600049c0      0x16c ./source/drivers/trng/bl_trng.o
                0x600049c0                TRNG_Init
 .text.ocotp_set_read_timing
                0x60004b2c       0x2c ./source/drivers/ocotp/bl_ocotp.o
 .text.ocotp_program_once
                0x60004b58       0xb0 ./source/drivers/ocotp/bl_ocotp.o
                0x60004b58                ocotp_program_once
 .text.ocotp_read_once
                0x60004c08       0x68 ./source/drivers/ocotp/bl_ocotp.o
                0x60004c08                ocotp_read_once
 .text.microseconds_shutdown
                0x60004c70       0x24 ./source/drivers/microseconds/microseconds_pit.o
                0x60004c70                microseconds_shutdown
 .text.microseconds_get_ticks
                0x60004c94       0x1c ./source/drivers/microseconds/microseconds_pit.o
                0x60004c94                microseconds_get_ticks
 .text.microseconds_convert_to_ticks
                0x60004cb0       0x18 ./source/drivers/microseconds/microseconds_pit.o
                0x60004cb0                microseconds_convert_to_ticks
 .text.microseconds_init
                0x60004cc8       0x78 ./source/drivers/microseconds/microseconds_pit.o
                0x60004cc8                microseconds_init
 .text.dcp_enable
                0x60004d40       0x1c ./source/drivers/dcp/bl_dcp.o
 .text.dcp_wait_task_done
                0x60004d5c       0xe4 ./source/drivers/dcp/bl_dcp.o
 .text.dcp_aes_config_key_iv.isra.0.constprop.0
                0x60004e40       0xc0 ./source/drivers/dcp/bl_dcp.o
 .text.dcp_aes_init
                0x60004f00       0x30 ./source/drivers/dcp/bl_dcp.o
                0x60004f00                dcp_aes_init
 .text.dcp_entry
                0x60004f30       0x10 ./source/drivers/dcp/bl_dcp.o
                0x60004f30                dcp_entry
 .text.dcp_aes_set_key
                0x60004f40       0xe4 ./source/drivers/dcp/bl_dcp.o
                0x60004f40                dcp_aes_set_key
 .text.crc32_update
                0x60005024       0x2c ./source/crc/crc32.o
                0x60005024                crc32_update
 .text.crc32_finalize
                0x60005050       0x28 ./source/crc/crc32.o
                0x60005050                crc32_finalize
 .text.__NVIC_SystemReset
                0x60005078       0x24 ./source/bootloader/src/bl_command.o
 .text.bootloader_command_init
                0x6000509c       0x10 ./source/bootloader/src/bl_command.o
                0x6000509c                bootloader_command_init
 .text.reset_data_phase
                0x600050ac       0x14 ./source/bootloader/src/bl_command.o
 .text.send_generic_response
                0x600050c0       0x28 ./source/bootloader/src/bl_command.o
                0x600050c0                send_generic_response
 .text.bootloader_command_pump
                0x600050e8       0xb0 ./source/bootloader/src/bl_command.o
                0x600050e8                bootloader_command_pump
 .text.handle_reset
                0x60005198       0x24 ./source/bootloader/src/bl_command.o
                0x60005198                handle_reset
 .text.handle_reliable_update
                0x600051bc       0x48 ./source/bootloader/src/bl_command.o
                0x600051bc                handle_reliable_update
 .text.handle_flash_erase_region
                0x60005204       0x20 ./source/bootloader/src/bl_command.o
                0x60005204                handle_flash_erase_region
 .text.handle_receive_sb_file
                0x60005224       0x2c ./source/bootloader/src/bl_command.o
                0x60005224                handle_receive_sb_file
 .text.handle_set_property
                0x60005250       0x20 ./source/bootloader/src/bl_command.o
                0x60005250                handle_set_property
 .text.handle_configure_memory
                0x60005270       0x4c ./source/bootloader/src/bl_command.o
                0x60005270                handle_configure_memory
 .text.handle_write_memory
                0x600052bc       0x30 ./source/bootloader/src/bl_command.o
                0x600052bc                handle_write_memory
 .text.finalize_data_phase
                0x600052ec       0x64 ./source/bootloader/src/bl_command.o
                0x600052ec                finalize_data_phase
 .text.handle_data_consumer
                0x60005350      0x108 ./source/bootloader/src/bl_command.o
                0x60005350                handle_data_consumer
 .text.handle_data_producer
                0x60005458       0xec ./source/bootloader/src/bl_command.o
                0x60005458                handle_data_producer
 .text.handle_key_blob_data
                0x60005544       0x18 ./source/bootloader/src/bl_command.o
                0x60005544                handle_key_blob_data
 .text.handle_fill_memory
                0x6000555c       0x20 ./source/bootloader/src/bl_command.o
                0x6000555c                handle_fill_memory
 .text.handle_execute
                0x6000557c       0x6c ./source/bootloader/src/bl_command.o
                0x6000557c                handle_execute
 .text.handle_flash_program_once
                0x600055e8       0x30 ./source/bootloader/src/bl_command.o
                0x600055e8                handle_flash_program_once
 .text.send_get_property_response
                0x60005618       0x48 ./source/bootloader/src/bl_command.o
                0x60005618                send_get_property_response
 .text.handle_get_property
                0x60005660       0x30 ./source/bootloader/src/bl_command.o
                0x60005660                handle_get_property
 .text.send_generate_key_blob_response
                0x60005690       0x28 ./source/bootloader/src/bl_command.o
                0x60005690                send_generate_key_blob_response
 .text.handle_generate_key_blob
                0x600056b8       0x58 ./source/bootloader/src/bl_command.o
                0x600056b8                handle_generate_key_blob
 .text.send_read_memory_response
                0x60005710       0x28 ./source/bootloader/src/bl_command.o
                0x60005710                send_read_memory_response
 .text.handle_read_memory
                0x60005738       0x30 ./source/bootloader/src/bl_command.o
                0x60005738                handle_read_memory
 .text.send_flash_read_once_response
                0x60005768       0x44 ./source/bootloader/src/bl_command.o
                0x60005768                send_flash_read_once_response
 .text.handle_flash_read_once
                0x600057ac       0x34 ./source/bootloader/src/bl_command.o
                0x600057ac                handle_flash_read_once
 .text.HardFault_Handler
                0x600057e0       0x24 ./source/bootloader/src/bl_exception_handler.o
                0x600057e0                HardFault_Handler
 .text.generate_key_blob
                0x60005804       0xc8 ./source/bootloader/src/bl_keyblob_dcp.o
                0x60005804                generate_key_blob
 .text.jump_to_application
                0x600058cc       0x30 ./source/bootloader/src/bl_main.o
 .text.is_valid_application_location
                0x600058fc       0x30 ./source/bootloader/src/bl_main.o
                0x600058fc                is_valid_application_location
 .text.is_valid_stackpointer_location
                0x6000592c       0x30 ./source/bootloader/src/bl_main.o
                0x6000592c                is_valid_stackpointer_location
 .text.startup.main
                0x6000595c      0x174 ./source/bootloader/src/bl_main.o
                0x6000595c                main
 .text.update_reliable_update_status
                0x60005ad0       0x10 ./source/bootloader/src/bl_reliable_update_common.o
 .text.get_partition_info
                0x60005ae0       0x28 ./source/bootloader/src/bl_reliable_update_common.o
                0x60005ae0                get_partition_info
 .text.swap_meta_check
                0x60005b08       0x1c ./source/bootloader/src/bl_reliable_update_common.o
                0x60005b08                swap_meta_check
 .text.boot_meta_check
                0x60005b24       0x20 ./source/bootloader/src/bl_reliable_update_common.o
                0x60005b24                boot_meta_check
 .text.get_image_header
                0x60005b44       0x34 ./source/bootloader/src/bl_reliable_update_common.o
                0x60005b44                get_image_header
 .text.boot_image_check
                0x60005b78       0x64 ./source/bootloader/src/bl_reliable_update_common.o
                0x60005b78                boot_image_check
 .text.flash_copy
                0x60005bdc       0x58 ./source/bootloader/src/bl_reliable_update_common.o
                0x60005bdc                flash_copy
 .text.load_boot_meta
                0x60005c34       0xb4 ./source/bootloader/src/bl_reliable_update_common.o
                0x60005c34                load_boot_meta
 .text.update_default_swap_meta
                0x60005ce8       0x28 ./source/bootloader/src/bl_reliable_update_common.o
                0x60005ce8                update_default_swap_meta
 .text.load_swap_meta
                0x60005d10       0x70 ./source/bootloader/src/bl_reliable_update_common.o
                0x60005d10                load_swap_meta
 .text.update_swap_meta
                0x60005d80       0x8c ./source/bootloader/src/bl_reliable_update_common.o
                0x60005d80                update_swap_meta
 .text.boot_go  0x60005e0c       0x60 ./source/bootloader/src/bl_reliable_update_common.o
                0x60005e0c                boot_go
 .text.run_swap_routine
                0x60005e6c      0x264 ./source/bootloader/src/bl_reliable_update_common.o
                0x60005e6c                run_swap_routine
 .text.do_swap_if_needed
                0x600060d0       0x28 ./source/bootloader/src/bl_reliable_update_common.o
                0x600060d0                do_swap_if_needed
 .text.bootloader_reliable_update_as_requested
                0x600060f8       0xcc ./source/bootloader/src/bl_reliable_update_common.o
                0x600060f8                bootloader_reliable_update_as_requested
 .text.shutdown_cleanup
                0x600061c4       0x4c ./source/bootloader/src/bl_shutdown_cleanup.o
                0x600061c4                shutdown_cleanup
 .text.LPUART1_IRQHandler
                0x60006210       0x28 ./source/bootloader/src/lpuart_peripheral_interface.o
                0x60006210                LPUART1_IRQHandler
 .text.usb_hid_poll_for_activity
                0x60006238       0x24 ./source/bootloader/src/usb_hid_msc_peripheral_interface.o
 .text.usb_msc_pump
                0x6000625c       0x10 ./source/bootloader/src/usb_hid_msc_peripheral_interface.o
 .text.usb_hid_packet_init
                0x6000626c       0x28 ./source/bootloader/src/usb_hid_msc_peripheral_interface.o
 .text.usb_hid_packet_write
                0x60006294       0x9c ./source/bootloader/src/usb_hid_msc_peripheral_interface.o
 .text.usb_hid_packet_read
                0x60006330       0xa4 ./source/bootloader/src/usb_hid_msc_peripheral_interface.o
 .text.usb_device_full_shutdown
                0x600063d4       0x74 ./source/bootloader/src/usb_hid_msc_peripheral_interface.o
 .text.usb_device_full_init
                0x60006448       0xc0 ./source/bootloader/src/usb_hid_msc_peripheral_interface.o
 .text.usb_device_callback
                0x60006508      0x104 ./source/bootloader/src/usb_hid_msc_peripheral_interface.o
                0x60006508                usb_device_callback
 .text.USB_OTG1_IRQHandler
                0x6000660c        0xc ./source/bootloader/src/usb_hid_msc_peripheral_interface.o
                0x6000660c                USB_OTG1_IRQHandler
 .text.LPSPI_CommonIRQHandler
                0x60006618       0x20 ./drivers/fsl_lpspi.o
 .text.LPSPI1_DriverIRQHandler
                0x60006638       0x14 ./drivers/fsl_lpspi.o
                0x60006638                LPSPI1_DriverIRQHandler
 .text.LPSPI2_DriverIRQHandler
                0x6000664c       0x14 ./drivers/fsl_lpspi.o
                0x6000664c                LPSPI2_DriverIRQHandler
 .text.LPSPI3_DriverIRQHandler
                0x60006660       0x14 ./drivers/fsl_lpspi.o
                0x60006660                LPSPI3_DriverIRQHandler
 .text.LPSPI4_DriverIRQHandler
                0x60006674       0x14 ./drivers/fsl_lpspi.o
                0x60006674                LPSPI4_DriverIRQHandler
 .text.LPUART1_DriverIRQHandler
                0x60006688       0x20 ./drivers/fsl_lpuart.o
                0x60006688                LPUART1_DriverIRQHandler
 .text.LPUART2_DriverIRQHandler
                0x600066a8       0x20 ./drivers/fsl_lpuart.o
                0x600066a8                LPUART2_DriverIRQHandler
 .text.LPUART3_DriverIRQHandler
                0x600066c8       0x20 ./drivers/fsl_lpuart.o
                0x600066c8                LPUART3_DriverIRQHandler
 .text.LPUART4_DriverIRQHandler
                0x600066e8       0x20 ./drivers/fsl_lpuart.o
                0x600066e8                LPUART4_DriverIRQHandler
 .text.LPUART5_DriverIRQHandler
                0x60006708       0x20 ./drivers/fsl_lpuart.o
                0x60006708                LPUART5_DriverIRQHandler
 .text.LPUART6_DriverIRQHandler
                0x60006728       0x20 ./drivers/fsl_lpuart.o
                0x60006728                LPUART6_DriverIRQHandler
 .text.LPUART7_DriverIRQHandler
                0x60006748       0x20 ./drivers/fsl_lpuart.o
                0x60006748                LPUART7_DriverIRQHandler
 .text.LPUART8_DriverIRQHandler
                0x60006768       0x20 ./drivers/fsl_lpuart.o
                0x60006768                LPUART8_DriverIRQHandler
 .text.RTWDOG_disable
                0x60006788       0x2c ./device/system_MIMXRT1062.o
                0x60006788                RTWDOG_disable
 .text.SystemInit
                0x600067b4       0x24 ./device/system_MIMXRT1062.o
                0x600067b4                SystemInit
 .text.flexspi_nor_flash_init
                0x600067d8       0x10 ./MIMXRT1062/bl_api.o
                0x600067d8                flexspi_nor_flash_init
 .text.flexspi_nor_flash_page_program
                0x600067e8       0x18 ./MIMXRT1062/bl_api.o
                0x600067e8                flexspi_nor_flash_page_program
 .text.flexspi_nor_get_config
                0x60006800       0x78 ./MIMXRT1062/bl_api.o
                0x60006800                flexspi_nor_get_config
 .text.flexspi_nor_flash_erase
                0x60006878       0x18 ./MIMXRT1062/bl_api.o
                0x60006878                flexspi_nor_flash_erase
 .text.flexspi_nor_flash_read
                0x60006890       0x18 ./MIMXRT1062/bl_api.o
                0x60006890                flexspi_nor_flash_read
 .text.flexspi_clear_cache
                0x600068a8       0x10 ./MIMXRT1062/bl_api.o
                0x600068a8                flexspi_clear_cache
 .text.usb_clock_init
                0x600068b8       0x54 ./MIMXRT1062/bl_clock_config_MIMXRT1062.o
                0x600068b8                usb_clock_init
 .text.clock_setup
                0x6000690c      0x184 ./MIMXRT1062/bl_clock_config_MIMXRT1062.o
                0x6000690c                clock_setup
 .text.microseconds_get_clock
                0x60006a90       0x28 ./MIMXRT1062/bl_clock_config_MIMXRT1062.o
                0x60006a90                microseconds_get_clock
 .text.get_bus_clock
                0x60006ab8       0x1c ./MIMXRT1062/bl_clock_config_MIMXRT1062.o
                0x60006ab8                get_bus_clock
 .text.is_boot_pin_asserted
                0x60006ad4       0x4c ./MIMXRT1062/hardware_init_MIMXRT1062.o
                0x60006ad4                is_boot_pin_asserted
 .text.init_hardware
                0x60006b20       0x20 ./MIMXRT1062/hardware_init_MIMXRT1062.o
                0x60006b20                init_hardware
 .text.deinit_hardware
                0x60006b40       0x10 ./MIMXRT1062/hardware_init_MIMXRT1062.o
                0x60006b40                deinit_hardware
 .text.get_hab_status
                0x60006b50       0x18 ./MIMXRT1062/hardware_init_MIMXRT1062.o
                0x60006b50                get_hab_status
 .text.get_flexspinor_instance
                0x60006b68       0x14 ./MIMXRT1062/hardware_init_MIMXRT1062.o
                0x60006b68                get_flexspinor_instance
 .text.normal_mem_init
                0x60006b7c       0x78 ./MIMXRT1062/hardware_init_MIMXRT1062.o
                0x60006b7c                normal_mem_init
 .text.target_load_bootloader_config_area
                0x60006bf4       0x14 ./MIMXRT1062/hardware_init_MIMXRT1062.o
                0x60006bf4                target_load_bootloader_config_area
 .text.api_update_swap_meta
                0x60006c08       0xfc ./MIMXRT1062/hardware_init_MIMXRT1062.o
                0x60006c08                api_update_swap_meta
 .text.app_api_update_swap_meta
                0x60006d04       0xc8 ./MIMXRT1062/hardware_init_MIMXRT1062.o
                0x60006d04                app_api_update_swap_meta
 .text.app_api_update_boot_meta
                0x60006dcc       0xd4 ./MIMXRT1062/hardware_init_MIMXRT1062.o
                0x60006dcc                app_api_update_boot_meta
 .text.update_partition_table_user_api.part.0
                0x60006ea0       0x4c ./MIMXRT1062/hardware_init_MIMXRT1062.o
 .text.GPIO1_Combined_0_15_IRQHandler
                0x60006eec       0x24 ./MIMXRT1062/pinmux_utility_imxrt_series.o
                0x60006eec                GPIO1_Combined_0_15_IRQHandler
 .text.USB_DeviceEhciSetDefaultState
                0x60006f10       0xa0 ./usb/device/source/ehci/usb_device_ehci.o
 .text.USB_DeviceEhciSend
                0x60006fb0        0xc ./usb/device/source/ehci/usb_device_ehci.o
                0x60006fb0                USB_DeviceEhciSend
 .text.USB_DeviceEhciRecv
                0x60006fbc        0x8 ./usb/device/source/ehci/usb_device_ehci.o
                0x60006fbc                USB_DeviceEhciRecv
 .text.USB_DeviceEhciEndpointDeinit
                0x60006fc4       0x90 ./usb/device/source/ehci/usb_device_ehci.o
 .text.USB_DeviceEhciControl
                0x60007054      0x2f0 ./usb/device/source/ehci/usb_device_ehci.o
                0x60007054                USB_DeviceEhciControl
 .text.USB_DeviceEhciIsrFunction
                0x60007344      0x2e0 ./usb/device/source/ehci/usb_device_ehci.o
                0x60007344                USB_DeviceEhciIsrFunction
 .text.USB_DeviceCh9GetStatus
                0x60007624       0x98 ./usb/device/source/usb_device_ch9.o
 .text.USB_DeviceCh9GetDescriptor
                0x600076bc       0xba ./usb/device/source/usb_device_ch9.o
 .text.USB_DeviceCh9SetAddress
                0x60007776       0x5a ./usb/device/source/usb_device_ch9.o
 .text.USB_DeviceCh9SetClearFeature
                0x600077d0       0x8c ./usb/device/source/usb_device_ch9.o
 .text.USB_DeviceCh9SynchFrame
                0x6000785c       0x42 ./usb/device/source/usb_device_ch9.o
 .text.USB_DeviceCh9SetInterface
                0x6000789e       0x48 ./usb/device/source/usb_device_ch9.o
 .text.USB_DeviceCh9GetInterface
                0x600078e6       0x42 ./usb/device/source/usb_device_ch9.o
 .text.USB_DeviceCh9GetConfiguration
                0x60007928       0x3c ./usb/device/source/usb_device_ch9.o
 .text.USB_DeviceCh9SetConfiguration
                0x60007964       0x64 ./usb/device/source/usb_device_ch9.o
 .text.USB_DeviceControlCallbackFeedback
                0x600079c8       0x68 ./usb/device/source/usb_device_ch9.o
 .text.USB_DeviceControl
                0x60007a30       0x14 ./usb/device/source/usb_device_dci.o
 .text.USB_DeviceTransfer
                0x60007a44       0x76 ./usb/device/source/usb_device_dci.o
 .text.USB_DeviceNotificationTrigger
                0x60007aba       0xa8 ./usb/device/source/usb_device_dci.o
                0x60007aba                USB_DeviceNotificationTrigger
 .text.USB_DeviceRun
                0x60007b62        0x8 ./usb/device/source/usb_device_dci.o
                0x60007b62                USB_DeviceRun
 .text.USB_DeviceDeinit
                0x60007b6a       0x32 ./usb/device/source/usb_device_dci.o
                0x60007b6a                USB_DeviceDeinit
 .text.USB_DeviceSendRequest
                0x60007b9c        0xc ./usb/device/source/usb_device_dci.o
                0x60007b9c                USB_DeviceSendRequest
 .text.USB_DeviceRecvRequest
                0x60007ba8        0x8 ./usb/device/source/usb_device_dci.o
                0x60007ba8                USB_DeviceRecvRequest
 .text.USB_DeviceInitEndpoint
                0x60007bb0       0x3e ./usb/device/source/usb_device_dci.o
                0x60007bb0                USB_DeviceInitEndpoint
 .text.USB_DeviceDeinitEndpoint
                0x60007bee       0x3e ./usb/device/source/usb_device_dci.o
                0x60007bee                USB_DeviceDeinitEndpoint
 .text.USB_DeviceStallEndpoint
                0x60007c2c       0x1e ./usb/device/source/usb_device_dci.o
                0x60007c2c                USB_DeviceStallEndpoint
 .text.USB_DeviceUnstallEndpoint
                0x60007c4a       0x1e ./usb/device/source/usb_device_dci.o
                0x60007c4a                USB_DeviceUnstallEndpoint
 .text.USB_DeviceGetStatus
                0x60007c68       0x42 ./usb/device/source/usb_device_dci.o
                0x60007c68                USB_DeviceGetStatus
 .text.USB_DeviceSetStatus
                0x60007caa       0x62 ./usb/device/source/usb_device_dci.o
                0x60007caa                USB_DeviceSetStatus
 .text.USB_DeviceHidInterruptIn
                0x60007d0c       0x20 ./usb/device/class/hid/usb_device_hid.o
 .text.USB_DeviceHidInterruptOut
                0x60007d2c       0x20 ./usb/device/class/hid/usb_device_hid.o
 .text.USB_DeviceHidEndpointsDeinit
                0x60007d4c       0x32 ./usb/device/class/hid/usb_device_hid.o
 .text.USB_DeviceHidEvent
                0x60007d7e      0x262 ./usb/device/class/hid/usb_device_hid.o
                0x60007d7e                USB_DeviceHidEvent
 .text.USB_DeviceHidDeinit
                0x60007fe0       0x1a ./usb/device/class/hid/usb_device_hid.o
                0x60007fe0                USB_DeviceHidDeinit
 .text.USB_DeviceHidSend
                0x60007ffa       0x36 ./usb/device/class/hid/usb_device_hid.o
                0x60007ffa                USB_DeviceHidSend
 .text.USB_DeviceHidRecv
                0x60008030       0x36 ./usb/device/class/hid/usb_device_hid.o
                0x60008030                USB_DeviceHidRecv
 .text.USB_DeviceClassCallback
                0x60008066       0x38 ./usb/device/class/usb_device_class.o
                0x60008066                USB_DeviceClassCallback
 .text.USB_DeviceClassDeinit
                0x6000809e       0x5c ./usb/device/class/usb_device_class.o
                0x6000809e                USB_DeviceClassDeinit
 .text.USB_DeviceClassGetSpeed
                0x600080fa       0x1e ./usb/device/class/usb_device_class.o
                0x600080fa                USB_DeviceClassGetSpeed
 .text.sync_init
                0x60008118        0x4 ./source/utilities/src/fsl_rtos_abstraction.o
                0x60008118                sync_init
 .text.lock_init
                0x6000811c        0x2 ./source/utilities/src/fsl_rtos_abstraction.o
                0x6000811c                lock_init
 .text.usb_device_get_hid_descriptor
                0x6000811e        0x4 ./source/usb/bm_composite/usb_descriptor.o
                0x6000811e                usb_device_get_hid_descriptor
 .text.usb_device_get_hid_physical_descriptor
                0x60008122        0x4 ./source/usb/bm_composite/usb_descriptor.o
                0x60008122                usb_device_get_hid_physical_descriptor
 .text.ldr_DoHeader2
                0x60008126       0x26 ./source/sbloader/src/sbloader.o
                0x60008126                ldr_DoHeader2
 .text.ldr_DoTagCmd
                0x6000814c       0x38 ./source/sbloader/src/sbloader.o
                0x6000814c                ldr_DoTagCmd
 .text.ldr_DoCallCmd
                0x60008184       0x36 ./source/sbloader/src/sbloader.o
                0x60008184                ldr_DoCallCmd
 .text.ldr_DoCommand
                0x600081ba       0x92 ./source/sbloader/src/sbloader.o
                0x600081ba                ldr_DoCommand
 .text.flexspi_nor_mem_config
                0x6000824c       0x22 ./source/memory/src/flexspi_nor_memory.o
                0x6000824c                flexspi_nor_mem_config
 .text.mem_erase
                0x6000826e       0x66 ./source/memory/src/memory.o
                0x6000826e                mem_erase
 .text.mem_fill
                0x600082d4       0x38 ./source/memory/src/memory.o
                0x600082d4                mem_fill
 .text.normal_mem_read
                0x6000830c       0x12 ./source/memory/src/normal_memory.o
                0x6000830c                normal_mem_read
 .text.normal_mem_write
                0x6000831e       0x10 ./source/memory/src/normal_memory.o
                0x6000831e                normal_mem_write
 .text.normal_mem_fill
                0x6000832e       0x12 ./source/memory/src/normal_memory.o
                0x6000832e                normal_mem_fill
 .text.TRNG_GetRandomData
                0x60008340       0x7c ./source/drivers/trng/bl_trng.o
                0x60008340                TRNG_GetRandomData
 .text.ocotp_wait_for_busy.constprop.0
                0x600083bc       0x4a ./source/drivers/ocotp/bl_ocotp.o
 .text.flexspi_is_parallel_mode
                0x60008406        0x8 ./source/drivers/flexspi/bl_flexspi.o
                0x60008406                flexspi_is_parallel_mode
 .text.uint32_to_be
                0x6000840e       0x1e ./source/drivers/dcp/bl_dcp.o
 .text.dcp_aes_cbc_crypt
                0x6000842c       0x4a ./source/drivers/dcp/bl_dcp.o
                0x6000842c                dcp_aes_cbc_crypt
 .text.dcp_aes_ecb_crypt
                0x60008476       0x44 ./source/drivers/dcp/bl_dcp.o
                0x60008476                dcp_aes_ecb_crypt
 .text.dcp_aes_ctr_crypt
                0x600084ba       0x7c ./source/drivers/dcp/bl_dcp.o
                0x600084ba                dcp_aes_ctr_crypt
 .text.aes_ccm_auth_crypt
                0x60008536      0x280 ./source/drivers/dcp/bl_dcp.o
 .text.dcp_aes_ccm_encrypt_and_mac
                0x600087b6       0x2c ./source/drivers/dcp/bl_dcp.o
                0x600087b6                dcp_aes_ccm_encrypt_and_mac
 .text.crc32_init
                0x600087e2        0xc ./source/crc/crc32.o
                0x600087e2                crc32_init
 .text.handle_flash_erase_all
                0x600087ee       0x1c ./source/bootloader/src/bl_command.o
                0x600087ee                handle_flash_erase_all
 .text.handle_call
                0x6000880a       0x26 ./source/bootloader/src/bl_command.o
                0x6000880a                handle_call
 .text.flash_read
                0x60008830       0x18 ./source/bootloader/src/bl_reliable_update_common.o
                0x60008830                flash_read
 .text.usb_hid_packet_abort_data_phase
                0x60008848       0x14 ./source/bootloader/src/usb_hid_msc_peripheral_interface.o
 .text.usb_hid_packet_finalize
                0x6000885c        0x4 ./source/bootloader/src/usb_hid_msc_peripheral_interface.o
 .text.usb_hid_packet_get_max_packet_size
                0x60008860        0x6 ./source/bootloader/src/usb_hid_msc_peripheral_interface.o
 .text.LPUART_GetStatusFlags
                0x60008866       0x10 ./drivers/fsl_lpuart.o
                0x60008866                LPUART_GetStatusFlags
 .text.OSA_EnterCritical
                0x60008876        0xa ./component/osa/fsl_os_abstraction_bm.o
                0x60008876                OSA_EnterCritical
 .text.OSA_ExitCritical
                0x60008880        0x6 ./component/osa/fsl_os_abstraction_bm.o
                0x60008880                OSA_ExitCritical
 .text.configure_clocks
                0x60008886        0x8 ./MIMXRT1062/bl_clock_config_MIMXRT1062.o
                0x60008886                configure_clocks
 .text.get_ocotp_clock
                0x6000888e        0x4 ./MIMXRT1062/bl_clock_config_MIMXRT1062.o
                0x6000888e                get_ocotp_clock
 .text.get_update_partition_info
                0x60008892       0x24 ./MIMXRT1062/hardware_init_MIMXRT1062.o
                0x60008892                get_update_partition_info
 .text.get_image_state
                0x600088b6       0x16 ./MIMXRT1062/hardware_init_MIMXRT1062.o
                0x600088b6                get_image_state
 .text.update_available_peripherals
                0x600088cc        0x2 ./MIMXRT1062/hardware_init_MIMXRT1062.o
                0x600088cc                update_available_peripherals
 .text.flexspi_update_padsetting
                0x600088ce       0x22 ./MIMXRT1062/hardware_init_MIMXRT1062.o
                0x600088ce                flexspi_update_padsetting
 .text.get_flexspinor_amba_base
                0x600088f0       0x14 ./MIMXRT1062/hardware_init_MIMXRT1062.o
                0x600088f0                get_flexspinor_amba_base
 .text.update_image_state
                0x60008904       0x7e ./MIMXRT1062/hardware_init_MIMXRT1062.o
                0x60008904                update_image_state
 .text.update_image_state_user_api
                0x60008982       0x7a ./MIMXRT1062/hardware_init_MIMXRT1062.o
                0x60008982                update_image_state_user_api
 .text.update_partition_table_user_api
                0x600089fc        0xe ./MIMXRT1062/hardware_init_MIMXRT1062.o
                0x600089fc                update_partition_table_user_api
 .text.memcmp   0x60008a0a       0x1c c:/nxp/mcuxpressoide_11.2.0_4120/ide/plugins/com.nxp.mcuxpresso.tools.win32_11.2.0.202001021529/tools/bin/../lib/gcc/arm-none-eabi/9.2.1/../../../../arm-none-eabi/lib/thumb/v7e-m+dp/hard\libc_nano.a(lib_a-memcmp.o)
                0x60008a0a                memcmp
 .text.memcpy   0x60008a26       0x1c c:/nxp/mcuxpressoide_11.2.0_4120/ide/plugins/com.nxp.mcuxpresso.tools.win32_11.2.0.202001021529/tools/bin/../lib/gcc/arm-none-eabi/9.2.1/../../../../arm-none-eabi/lib/thumb/v7e-m+dp/hard\libc_nano.a(lib_a-memcpy-stub.o)
                0x60008a26                memcpy
 .text.memset   0x60008a42       0x10 c:/nxp/mcuxpressoide_11.2.0_4120/ide/plugins/com.nxp.mcuxpresso.tools.win32_11.2.0.202001021529/tools/bin/../lib/gcc/arm-none-eabi/9.2.1/../../../../arm-none-eabi/lib/thumb/v7e-m+dp/hard\libc_nano.a(lib_a-memset.o)
                0x60008a42                memset
 *(SORT_BY_ALIGNMENT(.rodata))
 *fill*         0x60008a52        0x2 
 .rodata        0x60008a54       0xb4 ./MIMXRT1062/hardware_init_MIMXRT1062.o
 *(SORT_BY_ALIGNMENT(.rodata*))
 .rodata.s_UsbDeviceStandardRequest
                0x60008b08       0x34 ./usb/device/source/usb_device_ch9.o
 .rodata.s_UsbDeviceEhciInterface
                0x60008b3c       0x18 ./usb/device/source/usb_device_dci.o
 .rodata.s_UsbDeviceClassInterfaceMap
                0x60008b54       0x20 ./usb/device/class/usb_device_class.o
 .rodata.g_propertyInterface
                0x60008b74       0x14 ./source/property/src/property_imx.o
                0x60008b74                g_propertyInterface
 .rodata.g_flexspiMemoryInterface
                0x60008b88       0x1c ./source/memory/src/flexspi_nor_memory.o
                0x60008b88                g_flexspiMemoryInterface
 .rodata.g_memoryInterface
                0x60008ba4       0x1c ./source/memory/src/memory.o
                0x60008ba4                g_memoryInterface
 .rodata.g_normalMemoryInterface
                0x60008bc0       0x1c ./source/memory/src/normal_memory.o
                0x60008bc0                g_normalMemoryInterface
 .rodata.s_crc32Table
                0x60008bdc      0x400 ./source/crc/crc32.o
 .rodata.g_commandHandlerTable
                0x60008fdc       0xa8 ./source/bootloader/src/bl_command.o
                0x60008fdc                g_commandHandlerTable
 .rodata.k_boot_meta
                0x60009084      0x20c ./source/bootloader/src/bl_reliable_update_common.o
                0x60009084                k_boot_meta
 .rodata.g_usbHidControlInterface
                0x60009290       0x10 ./source/bootloader/src/usb_hid_msc_peripheral_interface.o
                0x60009290                g_usbHidControlInterface
 .rodata.g_usbHidPacketInterface
                0x600092a0       0x1c ./source/bootloader/src/usb_hid_msc_peripheral_interface.o
                0x600092a0                g_usbHidPacketInterface
 .rodata.g_peripherals
                0x600092bc       0x30 ./MIMXRT1062/bl_peripherals_MIMXRT1062.o
                0x600092bc                g_peripherals
 .rodata.g_externalMemPropertyInterfaceMap
                0x600092ec       0x10 ./MIMXRT1062/external_memory_property_map_MIMXRT1062.o
                0x600092ec                g_externalMemPropertyInterfaceMap
 .rodata.g_reliableUpdateAPI
                0x600092fc       0x20 ./MIMXRT1062/hardware_init_MIMXRT1062.o
                0x600092fc                g_reliableUpdateAPI
 .rodata.s_usbIRQs
                0x6000931c        0x6 ./source/bootloader/src/usb_hid_msc_peripheral_interface.o
                0x60009324                . = ALIGN (0x4)
 *fill*         0x60009322        0x2 

.glue_7         0x60009324        0x0
 .glue_7        0x60009324        0x0 linker stubs

.glue_7t        0x60009324        0x0
 .glue_7t       0x60009324        0x0 linker stubs

.vfp11_veneer   0x60009324        0x0
 .vfp11_veneer  0x60009324        0x0 linker stubs

.v4_bx          0x60009324        0x0
 .v4_bx         0x60009324        0x0 linker stubs

.iplt           0x60009324        0x0
 .iplt          0x60009324        0x0 ./usb/device/source/ehci/usb_device_ehci.o

.ARM.extab
 *(SORT_BY_ALIGNMENT(.ARM.extab*) SORT_BY_ALIGNMENT(.gnu.linkonce.armextab.*))

.ARM            0x60009324        0x8
                0x60009324                __exidx_start = .
 *(SORT_BY_ALIGNMENT(.ARM.exidx*))
 .ARM.exidx     0x60009324        0x8 c:/nxp/mcuxpressoide_11.2.0_4120/ide/plugins/com.nxp.mcuxpresso.tools.win32_11.2.0.202001021529/tools/bin/../lib/gcc/arm-none-eabi/9.2.1/thumb/v7e-m+dp/hard\libgcc.a(_udivmoddi4.o)
                0x6000932c                __exidx_end = .
                0x6000932c                __etext = .
                0x6000932c                __DATA_ROM = .

.rel.dyn        0x6000932c        0x0
 .rel.iplt      0x6000932c        0x0 ./usb/device/source/ehci/usb_device_ehci.o

.data           0x20208000      0x268 load address 0x6000932c
                0x20208000                . = ALIGN (0x4)
                0x20208000                __DATA_RAM = .
                0x20208000                __data_start__ = .
 *(SORT_BY_ALIGNMENT(.data))
 *(SORT_BY_ALIGNMENT(.data*))
 .data.g_composite_device
                0x20208000        0xc ./source/usb/bm_composite/composite.o
                0x20208000                g_composite_device
 .data.g_composite_device_config_list
                0x2020800c        0xc ./source/usb/bm_composite/composite.o
                0x2020800c                g_composite_device_config_list
 .data.g_hid_generic_class
                0x20208018        0x8 ./source/usb/bm_composite/usb_descriptor.o
                0x20208018                g_hid_generic_class
 .data.g_hid_generic_interface
                0x20208020       0x10 ./source/usb/bm_composite/usb_descriptor.o
                0x20208020                g_hid_generic_interface
 .data.g_hid_generic_interface_list
                0x20208030        0x8 ./source/usb/bm_composite/usb_descriptor.o
                0x20208030                g_hid_generic_interface_list
 .data.g_hid_generic_interfaces
                0x20208038        0xc ./source/usb/bm_composite/usb_descriptor.o
                0x20208038                g_hid_generic_interfaces
 .data.g_language_list
                0x20208044       0x10 ./source/usb/bm_composite/usb_descriptor.o
                0x20208044                g_language_list
 .data.g_string_desc_size
                0x20208054       0x14 ./source/usb/bm_composite/usb_descriptor.o
                0x20208054                g_string_desc_size
 .data.g_string_descriptors
                0x20208068       0x14 ./source/usb/bm_composite/usb_descriptor.o
                0x20208068                g_string_descriptors
 .data.g_usb_lang
                0x2020807c        0xc ./source/usb/bm_composite/usb_descriptor.o
                0x2020807c                g_usb_lang
 .data.g_commandInterface
                0x20208088       0x10 ./source/bootloader/src/bl_command.o
                0x20208088                g_commandInterface
 .data.g_bootloaderContext
                0x20208098       0x24 ./source/bootloader/src/bl_context.o
                0x20208098                g_bootloaderContext
 .data.SystemCoreClock
                0x202080bc        0x4 ./device/system_MIMXRT1062.o
                0x202080bc                SystemCoreClock
 .data.g_memoryMap
                0x202080c0       0x50 ./MIMXRT1062/memory_map_MIMXRT1062.o
                0x202080c0                g_memoryMap
 .data.g_hid_generic_endpoints
                0x20208110        0xc ./source/usb/bm_composite/usb_descriptor.o
                0x20208110                g_hid_generic_endpoints
 .data.g_msc_disk_endpoints
                0x2020811c        0xc ./source/usb/bm_composite/usb_descriptor.o
                0x2020811c                g_msc_disk_endpoints
 .data.g_config_descriptor
                0x20208128       0x29 ./source/usb/bm_composite/usb_descriptor.o
                0x20208128                g_config_descriptor
 .data.g_device_descriptor
                0x20208151       0x12 ./source/usb/bm_composite/usb_descriptor.o
                0x20208151                g_device_descriptor
 .data.g_hid_generic_report_descriptor
                0x20208163       0x4c ./source/usb/bm_composite/usb_descriptor.o
                0x20208163                g_hid_generic_report_descriptor
 .data.g_usb_str_0
                0x202081af        0x4 ./source/usb/bm_composite/usb_descriptor.o
                0x202081af                g_usb_str_0
 .data.g_usb_str_1
                0x202081b3       0x3a ./source/usb/bm_composite/usb_descriptor.o
                0x202081b3                g_usb_str_1
 .data.g_usb_str_2
                0x202081ed       0x2a ./source/usb/bm_composite/usb_descriptor.o
                0x202081ed                g_usb_str_2
 .data.g_usb_str_3
                0x20208217       0x2e ./source/usb/bm_composite/usb_descriptor.o
                0x20208217                g_usb_str_3
 .data.g_usb_str_n
                0x20208245       0x22 ./source/usb/bm_composite/usb_descriptor.o
                0x20208245                g_usb_str_n
                0x20208268                . = ALIGN (0x4)
 *fill*         0x20208267        0x1 
                0x20208268                __data_end__ = .
                0x60009594                __DATA_END = (__DATA_ROM + (__data_end__ - __data_start__))

.igot.plt       0x20208268        0x0 load address 0x60009594
 .igot.plt      0x20208268        0x0 ./usb/device/source/ehci/usb_device_ehci.o

.bss            0x20208800     0x2c60 load address 0x6000a000
                0x20208800                . = ALIGN (0x4)
                0x20208800                __START_BSS = .
                0x20208800                __bss_start__ = .
 *(SORT_BY_ALIGNMENT(.bss))
 *(SORT_BY_ALIGNMENT(.bss*))
 .bss.qh_buffer
                0x20208800     0x1000 ./usb/device/source/ehci/usb_device_ehci.o
 .bss.s_UsbDeviceEhciDtd
                0x20209800      0x400 ./usb/device/source/ehci/usb_device_ehci.o
 .bss.s_UsbDevice
                0x20209c00      0x1b0 ./usb/device/source/usb_device_dci.o
 .bss.g_UsbDeviceEhciState
                0x20209db0      0x138 ./usb/device/source/ehci/usb_device_ehci.o
 .bss.s_UsbDeviceHidHandle
                0x20209ee8       0x28 ./usb/device/class/hid/usb_device_hid.o
 .bss.s_UsbDeviceCommonClassStruct
                0x20209f10       0x20 ./usb/device/class/usb_device_class.o
 .bss.s_UsbDeviceSetupBuffer
                0x20209f30       0x10 ./usb/device/class/usb_device_class.o
 .bss.osaCurrentSr
                0x20209f40        0x4 ./source/utilities/src/fsl_rtos_abstraction.o
                0x20209f40                osaCurrentSr
 .bss.g_device_composite
                0x20209f44        0x4 ./source/usb/bm_composite/hid_bootloader.o
 .bss.g_language_ptr
                0x20209f48        0x4 ./source/usb/bm_composite/usb_descriptor.o
                0x20209f48                g_language_ptr
 .bss.s_loaderBuf
                0x20209f4c       0x14 ./source/sbloader/src/sbloader.o
 .bss.s_loaderContext
                0x20209f60       0x70 ./source/sbloader/src/sbloader.o
 .bss.g_propertyStore
                0x20209fd0       0xd0 ./source/property/src/property_imx.o
                0x20209fd0                g_propertyStore
 .bss.s_propertyReturnValue
                0x2020a0a0        0x4 ./source/property/src/property_imx.o
 .bss.s_flexspiNorConfigBlock
                0x2020a0a4      0x200 ./source/memory/src/flexspi_nor_memory.o
 .bss.s_flexspiNorContext
                0x2020a2a4      0x418 ./source/memory/src/flexspi_nor_memory.o
 .bss.s_finalize
                0x2020a6bc        0x4 ./source/memory/src/memory.o
 .bss.s_flush   0x2020a6c0        0x4 ./source/memory/src/memory.o
 .bss.s_usdhcHandle
                0x2020a6c4        0xc ./source/drivers/usdhc/bl_usdhc.o
 .bss.s_usdhcIsr
                0x2020a6d0        0x4 ./source/drivers/usdhc/bl_usdhc.o
 .bss.s_ocotpTiming
                0x2020a6d4        0xc ./source/drivers/ocotp/bl_ocotp.o
 .bss.s_tickPerMicrosecondMul8
                0x2020a6e0        0x4 ./source/drivers/microseconds/microseconds_pit.o
                0x2020a6e0                s_tickPerMicrosecondMul8
 .bss.g_commandData
                0x2020a6e4       0x34 ./source/bootloader/src/bl_command.o
                0x2020a6e4                g_commandData
 .bss.key_data  0x2020a718       0x10 ./source/bootloader/src/bl_command.o
 .bss.s_addr.12977
                0x2020a728        0x4 ./source/bootloader/src/bl_command.o
 .bss.s_callFunction.12981
                0x2020a72c        0x4 ./source/bootloader/src/bl_command.o
 .bss.s_dataProducerPacket
                0x2020a730      0x3f4 ./source/bootloader/src/bl_command.o
 .bss.s_boot_ctx
                0x2020ab24      0x260 ./source/bootloader/src/bl_reliable_update_common.o
 .bss.temp_buffer.12510
                0x2020ad84      0x200 ./source/bootloader/src/bl_reliable_update_common.o
 .bss.s_lpuart_byte_receive_callback
                0x2020af84        0x4 ./source/bootloader/src/lpuart_peripheral_interface.o
 .bss.g_device_composite
                0x2020af88      0x424 ./source/bootloader/src/usb_hid_msc_peripheral_interface.o
 .bss.g_xtalFreq
                0x2020b3ac        0x4 ./drivers/fsl_clock.o
                0x2020b3ac                g_xtalFreq
 .bss.s_lpspiHandle
                0x2020b3b0       0x14 ./drivers/fsl_lpspi.o
 .bss.s_lpspiMasterIsr
                0x2020b3c4        0x4 ./drivers/fsl_lpspi.o
 .bss.s_lpspiSlaveIsr
                0x2020b3c8        0x4 ./drivers/fsl_lpspi.o
 .bss.s_lpuartHandle
                0x2020b3cc       0x24 ./drivers/fsl_lpuart.o
 .bss.s_lpuartIsr
                0x2020b3f0        0x4 ./drivers/fsl_lpuart.o
 .bss.g_externalMemoryMap
                0x2020b3f4       0x14 ./MIMXRT1062/memory_map_MIMXRT1062.o
                0x2020b3f4                g_externalMemoryMap
 .bss.s_pin_irq_func
                0x2020b408        0x8 ./MIMXRT1062/pinmux_utility_imxrt_series.o
 .bss.g_UsbDeviceEhciStateStatus
                0x2020b410        0x2 ./usb/device/source/ehci/usb_device_ehci.o
 .bss.s_ocotpIntialized
                0x2020b412        0x1 ./source/drivers/ocotp/bl_ocotp.o
 .bss.key_blob  0x2020b413       0x48 ./source/bootloader/src/bl_command.o
 .bss.s_dHidMscActivity
                0x2020b45b        0x2 ./source/bootloader/src/usb_hid_msc_peripheral_interface.o
 *(SORT_BY_ALIGNMENT(COMMON))
                0x2020b460                . = ALIGN (0x4)
 *fill*         0x2020b45d        0x3 
                0x2020b460                __bss_end__ = .
                0x2020b460                __END_BSS = .

m_usb_bdt       0x2020b460      0x1a0 load address 0x6000cc60
                0x2020b600                . = ALIGN (0x200)
 *fill*         0x2020b460      0x1a0 
                0x2020b600                __START_USBGLOBAL = .
 *(SORT_BY_ALIGNMENT(m_usb_bdt))
 *(SORT_BY_ALIGNMENT(m_usb_bdt))

m_usb_global    0x2020b600        0x0
 *(SORT_BY_ALIGNMENT(m_usb_global))
 *(SORT_BY_ALIGNMENT(m_usb_global))
                0x2020b600                __END_USBGLOBAL = .

.heap           0x2020b600        0x0
                0x2020b600                . = ALIGN (0x8)
                0x2020b600                __end__ = .
                [!provide]                PROVIDE (end = .)
                0x2020b600                __HeapBase = .
                0x2020b600                _pvHeapStart = .
                0x2020b600                . = (. + HEAP_SIZE)
                0x2020b600                __HeapLimit = .

.stack          0x2020b600     0x2000 load address 0x6000ce00
                0x2020b600                . = ALIGN (0x8)
                0x2020b600                __StackLimit = .
                0x2020d600                . = (. + STACK_SIZE)
 *fill*         0x2020b600     0x2000 
                0x2020d600                __StackTop = .
                0x2020d600                __STACK_TOP = .
                [!provide]                PROVIDE (__stack = __StackTop)

.ARM.attributes
                0x00000000       0x30
 *(SORT_BY_ALIGNMENT(.ARM.attributes))
 .ARM.attributes
                0x00000000       0x32 ./usb/device/source/ehci/usb_device_ehci.o
 .ARM.attributes
                0x00000032       0x32 ./usb/device/source/usb_device_ch9.o
 .ARM.attributes
                0x00000064       0x32 ./usb/device/source/usb_device_dci.o
 .ARM.attributes
                0x00000096       0x32 ./usb/device/class/hid/usb_device_hid.o
 .ARM.attributes
                0x000000c8       0x32 ./usb/device/class/usb_device_class.o
 .ARM.attributes
                0x000000fa       0x1d ./startup/crt0_gcc.o
 .ARM.attributes
                0x00000117       0x32 ./startup/startup.o
 .ARM.attributes
                0x00000149       0x1d ./startup/startup_MIMXRT1062.o
 .ARM.attributes
                0x00000166       0x32 ./source/utilities/src/fsl_rtos_abstraction.o
 .ARM.attributes
                0x00000198       0x37 ./source/usb/bm_composite/composite.o
 .ARM.attributes
                0x000001cf       0x32 ./source/usb/bm_composite/hid_bootloader.o
 .ARM.attributes
                0x00000201       0x32 ./source/usb/bm_composite/usb_descriptor.o
 .ARM.attributes
                0x00000233       0x32 ./source/sbloader/src/sbloader.o
 .ARM.attributes
                0x00000265       0x32 ./source/property/src/property_imx.o
 .ARM.attributes
                0x00000297       0x32 ./source/memory/src/flexspi_nor_memory.o
 .ARM.attributes
                0x000002c9       0x32 ./source/memory/src/memory.o
 .ARM.attributes
                0x000002fb       0x32 ./source/memory/src/normal_memory.o
 .ARM.attributes
                0x0000032d       0x1d ./source/memory/src/pattern_fill_gcc.o
 .ARM.attributes
                0x0000034a       0x32 ./source/drivers/usdhc/bl_usdhc.o
 .ARM.attributes
                0x0000037c       0x32 ./source/drivers/trng/bl_trng.o
 .ARM.attributes
                0x000003ae       0x32 ./source/drivers/ocotp/bl_ocotp.o
 .ARM.attributes
                0x000003e0       0x32 ./source/drivers/microseconds/microseconds_pit.o
 .ARM.attributes
                0x00000412       0x32 ./source/drivers/flexspi/bl_flexspi.o
 .ARM.attributes
                0x00000444       0x32 ./source/drivers/dcp/bl_dcp.o
 .ARM.attributes
                0x00000476       0x32 ./source/crc/crc32.o
 .ARM.attributes
                0x000004a8       0x32 ./source/bootloader/src/bl_command.o
 .ARM.attributes
                0x000004da       0x37 ./source/bootloader/src/bl_context.o
 .ARM.attributes
                0x00000511       0x32 ./source/bootloader/src/bl_exception_handler.o
 .ARM.attributes
                0x00000543       0x32 ./source/bootloader/src/bl_keyblob_dcp.o
 .ARM.attributes
                0x00000575       0x32 ./source/bootloader/src/bl_main.o
 .ARM.attributes
                0x000005a7       0x32 ./source/bootloader/src/bl_reliable_update_common.o
 .ARM.attributes
                0x000005d9       0x32 ./source/bootloader/src/bl_shutdown_cleanup.o
 .ARM.attributes
                0x0000060b       0x32 ./source/bootloader/src/lpuart_peripheral_interface.o
 .ARM.attributes
                0x0000063d       0x32 ./source/bootloader/src/usb_hid_msc_peripheral_interface.o
 .ARM.attributes
                0x0000066f       0x32 ./drivers/fsl_clock.o
 .ARM.attributes
                0x000006a1       0x32 ./drivers/fsl_lpspi.o
 .ARM.attributes
                0x000006d3       0x32 ./drivers/fsl_lpuart.o
 .ARM.attributes
                0x00000705       0x32 ./device/system_MIMXRT1062.o
 .ARM.attributes
                0x00000737       0x32 ./component/osa/fsl_os_abstraction_bm.o
 .ARM.attributes
                0x00000769       0x32 ./MIMXRT1062/bl_api.o
 .ARM.attributes
                0x0000079b       0x32 ./MIMXRT1062/bl_clock_config_MIMXRT1062.o
 .ARM.attributes
                0x000007cd       0x37 ./MIMXRT1062/bl_peripherals_MIMXRT1062.o
 .ARM.attributes
                0x00000804       0x37 ./MIMXRT1062/external_memory_property_map_MIMXRT1062.o
 .ARM.attributes
                0x0000083b       0x32 ./MIMXRT1062/hardware_init_MIMXRT1062.o
 .ARM.attributes
                0x0000086d       0x37 ./MIMXRT1062/memory_map_MIMXRT1062.o
 .ARM.attributes
                0x000008a4       0x32 ./MIMXRT1062/pinmux_utility_imxrt_series.o
 .ARM.attributes
                0x000008d6       0x1e c:/nxp/mcuxpressoide_11.2.0_4120/ide/plugins/com.nxp.mcuxpresso.tools.win32_11.2.0.202001021529/tools/bin/../lib/gcc/arm-none-eabi/9.2.1/thumb/v7e-m+dp/hard\libgcc.a(_aeabi_uldivmod.o)
 .ARM.attributes
                0x000008f4       0x32 c:/nxp/mcuxpressoide_11.2.0_4120/ide/plugins/com.nxp.mcuxpresso.tools.win32_11.2.0.202001021529/tools/bin/../lib/gcc/arm-none-eabi/9.2.1/thumb/v7e-m+dp/hard\libgcc.a(_udivmoddi4.o)
 .ARM.attributes
                0x00000926       0x1e c:/nxp/mcuxpressoide_11.2.0_4120/ide/plugins/com.nxp.mcuxpresso.tools.win32_11.2.0.202001021529/tools/bin/../lib/gcc/arm-none-eabi/9.2.1/thumb/v7e-m+dp/hard\libgcc.a(_dvmd_tls.o)
 .ARM.attributes
                0x00000944       0x32 c:/nxp/mcuxpressoide_11.2.0_4120/ide/plugins/com.nxp.mcuxpresso.tools.win32_11.2.0.202001021529/tools/bin/../lib/gcc/arm-none-eabi/9.2.1/../../../../arm-none-eabi/lib/thumb/v7e-m+dp/hard\libc_nano.a(lib_a-memcmp.o)
 .ARM.attributes
                0x00000976       0x32 c:/nxp/mcuxpressoide_11.2.0_4120/ide/plugins/com.nxp.mcuxpresso.tools.win32_11.2.0.202001021529/tools/bin/../lib/gcc/arm-none-eabi/9.2.1/../../../../arm-none-eabi/lib/thumb/v7e-m+dp/hard\libc_nano.a(lib_a-memcpy-stub.o)
 .ARM.attributes
                0x000009a8       0x32 c:/nxp/mcuxpressoide_11.2.0_4120/ide/plugins/com.nxp.mcuxpresso.tools.win32_11.2.0.202001021529/tools/bin/../lib/gcc/arm-none-eabi/9.2.1/../../../../arm-none-eabi/lib/thumb/v7e-m+dp/hard\libc_nano.a(lib_a-memset.o)
                0x00000001                ASSERT ((__StackLimit >= __HeapLimit), region m_data overflowed with stack and heap)
OUTPUT(evkmimxrt1060_ota_bootloader.axf elf32-littlearm)

.debug_info     0x00000000    0x6500e
 .debug_info    0x00000000     0x2a6a ./usb/device/source/ehci/usb_device_ehci.o
 .debug_info    0x00002a6a     0x268d ./usb/device/source/usb_device_ch9.o
 .debug_info    0x000050f7     0x201a ./usb/device/source/usb_device_dci.o
 .debug_info    0x00007111     0x1b3f ./usb/device/class/hid/usb_device_hid.o
 .debug_info    0x00008c50     0x1a62 ./usb/device/class/usb_device_class.o
 .debug_info    0x0000a6b2       0x26 ./startup/crt0_gcc.o
 .debug_info    0x0000a6d8      0x6f5 ./startup/startup.o
 .debug_info    0x0000adcd       0x26 ./startup/startup_MIMXRT1062.o
 .debug_info    0x0000adf3      0xe31 ./source/utilities/src/fsl_rtos_abstraction.o
 .debug_info    0x0000bc24     0x118d ./source/usb/bm_composite/composite.o
 .debug_info    0x0000cdb1     0x167c ./source/usb/bm_composite/hid_bootloader.o
 .debug_info    0x0000e42d     0x188b ./source/usb/bm_composite/usb_descriptor.o
 .debug_info    0x0000fcb8     0x3c49 ./source/sbloader/src/sbloader.o
 .debug_info    0x00013901     0x2e4e ./source/property/src/property_imx.o
 .debug_info    0x0001674f     0x3f8f ./source/memory/src/flexspi_nor_memory.o
 .debug_info    0x0001a6de     0x272a ./source/memory/src/memory.o
 .debug_info    0x0001ce08     0x123d ./source/memory/src/normal_memory.o
 .debug_info    0x0001e045       0x26 ./source/memory/src/pattern_fill_gcc.o
 .debug_info    0x0001e06b     0x405f ./source/drivers/usdhc/bl_usdhc.o
 .debug_info    0x000220ca     0x1c57 ./source/drivers/trng/bl_trng.o
 .debug_info    0x00023d21     0x1aee ./source/drivers/ocotp/bl_ocotp.o
 .debug_info    0x0002580f     0x15dc ./source/drivers/microseconds/microseconds_pit.o
 .debug_info    0x00026deb     0x3be3 ./source/drivers/flexspi/bl_flexspi.o
 .debug_info    0x0002a9ce     0x2b3d ./source/drivers/dcp/bl_dcp.o
 .debug_info    0x0002d50b      0xdb7 ./source/crc/crc32.o
 .debug_info    0x0002e2c2     0x4d10 ./source/bootloader/src/bl_command.o
 .debug_info    0x00032fd2     0x1cf3 ./source/bootloader/src/bl_context.o
 .debug_info    0x00034cc5      0xd87 ./source/bootloader/src/bl_exception_handler.o
 .debug_info    0x00035a4c     0x1329 ./source/bootloader/src/bl_keyblob_dcp.o
 .debug_info    0x00036d75     0x2515 ./source/bootloader/src/bl_main.o
 .debug_info    0x0003928a     0x3752 ./source/bootloader/src/bl_reliable_update_common.o
 .debug_info    0x0003c9dc     0x1d4a ./source/bootloader/src/bl_shutdown_cleanup.o
 .debug_info    0x0003e726     0x284e ./source/bootloader/src/lpuart_peripheral_interface.o
 .debug_info    0x00040f74     0x4375 ./source/bootloader/src/usb_hid_msc_peripheral_interface.o
 .debug_info    0x000452e9     0x2937 ./drivers/fsl_clock.o
 .debug_info    0x00047c20     0x4a7f ./drivers/fsl_lpspi.o
 .debug_info    0x0004c69f     0x32a8 ./drivers/fsl_lpuart.o
 .debug_info    0x0004f947      0x4ee ./device/system_MIMXRT1062.o
 .debug_info    0x0004fe35     0x1f2d ./component/osa/fsl_os_abstraction_bm.o
 .debug_info    0x00051d62     0x3237 ./MIMXRT1062/bl_api.o
 .debug_info    0x00054f99     0x2ded ./MIMXRT1062/bl_clock_config_MIMXRT1062.o
 .debug_info    0x00057d86     0x1ee4 ./MIMXRT1062/bl_peripherals_MIMXRT1062.o
 .debug_info    0x00059c6a     0x17b0 ./MIMXRT1062/external_memory_property_map_MIMXRT1062.o
 .debug_info    0x0005b41a     0x532a ./MIMXRT1062/hardware_init_MIMXRT1062.o
 .debug_info    0x00060744     0x1d35 ./MIMXRT1062/memory_map_MIMXRT1062.o
 .debug_info    0x00062479     0x2b95 ./MIMXRT1062/pinmux_utility_imxrt_series.o

.debug_abbrev   0x00000000     0xa2b0
 .debug_abbrev  0x00000000      0x539 ./usb/device/source/ehci/usb_device_ehci.o
 .debug_abbrev  0x00000539      0x3d7 ./usb/device/source/usb_device_ch9.o
 .debug_abbrev  0x00000910      0x423 ./usb/device/source/usb_device_dci.o
 .debug_abbrev  0x00000d33      0x3e4 ./usb/device/class/hid/usb_device_hid.o
 .debug_abbrev  0x00001117      0x377 ./usb/device/class/usb_device_class.o
 .debug_abbrev  0x0000148e       0x14 ./startup/crt0_gcc.o
 .debug_abbrev  0x000014a2      0x172 ./startup/startup.o
 .debug_abbrev  0x00001614       0x14 ./startup/startup_MIMXRT1062.o
 .debug_abbrev  0x00001628      0x2c4 ./source/utilities/src/fsl_rtos_abstraction.o
 .debug_abbrev  0x000018ec      0x1db ./source/usb/bm_composite/composite.o
 .debug_abbrev  0x00001ac7      0x27e ./source/usb/bm_composite/hid_bootloader.o
 .debug_abbrev  0x00001d45      0x2ed ./source/usb/bm_composite/usb_descriptor.o
 .debug_abbrev  0x00002032      0x549 ./source/sbloader/src/sbloader.o
 .debug_abbrev  0x0000257b      0x44c ./source/property/src/property_imx.o
 .debug_abbrev  0x000029c7      0x569 ./source/memory/src/flexspi_nor_memory.o
 .debug_abbrev  0x00002f30      0x44d ./source/memory/src/memory.o
 .debug_abbrev  0x0000337d      0x268 ./source/memory/src/normal_memory.o
 .debug_abbrev  0x000035e5       0x14 ./source/memory/src/pattern_fill_gcc.o
 .debug_abbrev  0x000035f9      0x527 ./source/drivers/usdhc/bl_usdhc.o
 .debug_abbrev  0x00003b20      0x3ca ./source/drivers/trng/bl_trng.o
 .debug_abbrev  0x00003eea      0x3ad ./source/drivers/ocotp/bl_ocotp.o
 .debug_abbrev  0x00004297      0x3af ./source/drivers/microseconds/microseconds_pit.o
 .debug_abbrev  0x00004646      0x54a ./source/drivers/flexspi/bl_flexspi.o
 .debug_abbrev  0x00004b90      0x593 ./source/drivers/dcp/bl_dcp.o
 .debug_abbrev  0x00005123      0x262 ./source/crc/crc32.o
 .debug_abbrev  0x00005385      0x572 ./source/bootloader/src/bl_command.o
 .debug_abbrev  0x000058f7      0x208 ./source/bootloader/src/bl_context.o
 .debug_abbrev  0x00005aff      0x20b ./source/bootloader/src/bl_exception_handler.o
 .debug_abbrev  0x00005d0a      0x2a9 ./source/bootloader/src/bl_keyblob_dcp.o
 .debug_abbrev  0x00005fb3      0x4fe ./source/bootloader/src/bl_main.o
 .debug_abbrev  0x000064b1      0x550 ./source/bootloader/src/bl_reliable_update_common.o
 .debug_abbrev  0x00006a01      0x2b6 ./source/bootloader/src/bl_shutdown_cleanup.o
 .debug_abbrev  0x00006cb7      0x3a0 ./source/bootloader/src/lpuart_peripheral_interface.o
 .debug_abbrev  0x00007057      0x56a ./source/bootloader/src/usb_hid_msc_peripheral_interface.o
 .debug_abbrev  0x000075c1      0x4ec ./drivers/fsl_clock.o
 .debug_abbrev  0x00007aad      0x599 ./drivers/fsl_lpspi.o
 .debug_abbrev  0x00008046      0x4f3 ./drivers/fsl_lpuart.o
 .debug_abbrev  0x00008539      0x132 ./device/system_MIMXRT1062.o
 .debug_abbrev  0x0000866b      0x50d ./component/osa/fsl_os_abstraction_bm.o
 .debug_abbrev  0x00008b78      0x30b ./MIMXRT1062/bl_api.o
 .debug_abbrev  0x00008e83      0x47b ./MIMXRT1062/bl_clock_config_MIMXRT1062.o
 .debug_abbrev  0x000092fe      0x208 ./MIMXRT1062/bl_peripherals_MIMXRT1062.o
 .debug_abbrev  0x00009506      0x20c ./MIMXRT1062/external_memory_property_map_MIMXRT1062.o
 .debug_abbrev  0x00009712      0x593 ./MIMXRT1062/hardware_init_MIMXRT1062.o
 .debug_abbrev  0x00009ca5      0x21b ./MIMXRT1062/memory_map_MIMXRT1062.o
 .debug_abbrev  0x00009ec0      0x3f0 ./MIMXRT1062/pinmux_utility_imxrt_series.o

.debug_loc      0x00000000    0x1a397
 .debug_loc     0x00000000     0x1a70 ./usb/device/source/ehci/usb_device_ehci.o
 .debug_loc     0x00001a70      0xf1f ./usb/device/source/usb_device_ch9.o
 .debug_loc     0x0000298f     0x13c0 ./usb/device/source/usb_device_dci.o
 .debug_loc     0x00003d4f      0xe44 ./usb/device/class/hid/usb_device_hid.o
 .debug_loc     0x00004b93      0x791 ./usb/device/class/usb_device_class.o
 .debug_loc     0x00005324      0x14a ./startup/startup.o
 .debug_loc     0x0000546e       0xbb ./source/utilities/src/fsl_rtos_abstraction.o
 .debug_loc     0x00005529      0x3c7 ./source/usb/bm_composite/hid_bootloader.o
 .debug_loc     0x000058f0      0x1dc ./source/usb/bm_composite/usb_descriptor.o
 .debug_loc     0x00005acc      0xc4d ./source/sbloader/src/sbloader.o
 .debug_loc     0x00006719      0x710 ./source/property/src/property_imx.o
 .debug_loc     0x00006e29     0x12b1 ./source/memory/src/flexspi_nor_memory.o
 .debug_loc     0x000080da      0xd13 ./source/memory/src/memory.o
 .debug_loc     0x00008ded      0x1b5 ./source/memory/src/normal_memory.o
 .debug_loc     0x00008fa2     0x21a2 ./source/drivers/usdhc/bl_usdhc.o
 .debug_loc     0x0000b144      0x937 ./source/drivers/trng/bl_trng.o
 .debug_loc     0x0000ba7b      0x3ff ./source/drivers/ocotp/bl_ocotp.o
 .debug_loc     0x0000be7a      0x1e9 ./source/drivers/microseconds/microseconds_pit.o
 .debug_loc     0x0000c063     0x13cf ./source/drivers/flexspi/bl_flexspi.o
 .debug_loc     0x0000d432     0x151a ./source/drivers/dcp/bl_dcp.o
 .debug_loc     0x0000e94c       0xe7 ./source/crc/crc32.o
 .debug_loc     0x0000ea33     0x1608 ./source/bootloader/src/bl_command.o
 .debug_loc     0x0001003b      0x12d ./source/bootloader/src/bl_keyblob_dcp.o
 .debug_loc     0x00010168      0x3f1 ./source/bootloader/src/bl_main.o
 .debug_loc     0x00010559     0x12aa ./source/bootloader/src/bl_reliable_update_common.o
 .debug_loc     0x00011803       0x25 ./source/bootloader/src/bl_shutdown_cleanup.o
 .debug_loc     0x00011828      0x26c ./source/bootloader/src/lpuart_peripheral_interface.o
 .debug_loc     0x00011a94      0xc2e ./source/bootloader/src/usb_hid_msc_peripheral_interface.o
 .debug_loc     0x000126c2      0xc4e ./drivers/fsl_clock.o
 .debug_loc     0x00013310     0x2d8b ./drivers/fsl_lpspi.o
 .debug_loc     0x0001609b     0x16f7 ./drivers/fsl_lpuart.o
 .debug_loc     0x00017792      0xd0d ./component/osa/fsl_os_abstraction_bm.o
 .debug_loc     0x0001849f      0x635 ./MIMXRT1062/bl_api.o
 .debug_loc     0x00018ad4      0x84a ./MIMXRT1062/bl_clock_config_MIMXRT1062.o
 .debug_loc     0x0001931e      0xd75 ./MIMXRT1062/hardware_init_MIMXRT1062.o
 .debug_loc     0x0001a093      0x304 ./MIMXRT1062/pinmux_utility_imxrt_series.o

.debug_aranges  0x00000000     0x1400
 .debug_aranges
                0x00000000       0x70 ./usb/device/source/ehci/usb_device_ehci.o
 .debug_aranges
                0x00000070       0x78 ./usb/device/source/usb_device_ch9.o
 .debug_aranges
                0x000000e8       0xa0 ./usb/device/source/usb_device_dci.o
 .debug_aranges
                0x00000188       0x60 ./usb/device/class/hid/usb_device_hid.o
 .debug_aranges
                0x000001e8       0x60 ./usb/device/class/usb_device_class.o
 .debug_aranges
                0x00000248       0x20 ./startup/crt0_gcc.o
 .debug_aranges
                0x00000268       0x28 ./startup/startup.o
 .debug_aranges
                0x00000290       0x20 ./startup/startup_MIMXRT1062.o
 .debug_aranges
                0x000002b0       0x50 ./source/utilities/src/fsl_rtos_abstraction.o
 .debug_aranges
                0x00000300       0x18 ./source/usb/bm_composite/composite.o
 .debug_aranges
                0x00000318       0x40 ./source/usb/bm_composite/hid_bootloader.o
 .debug_aranges
                0x00000358       0x48 ./source/usb/bm_composite/usb_descriptor.o
 .debug_aranges
                0x000003a0       0xc8 ./source/sbloader/src/sbloader.o
 .debug_aranges
                0x00000468       0x48 ./source/property/src/property_imx.o
 .debug_aranges
                0x000004b0       0x90 ./source/memory/src/flexspi_nor_memory.o
 .debug_aranges
                0x00000540       0x78 ./source/memory/src/memory.o
 .debug_aranges
                0x000005b8       0x38 ./source/memory/src/normal_memory.o
 .debug_aranges
                0x000005f0       0x20 ./source/memory/src/pattern_fill_gcc.o
 .debug_aranges
                0x00000610       0xe8 ./source/drivers/usdhc/bl_usdhc.o
 .debug_aranges
                0x000006f8       0x40 ./source/drivers/trng/bl_trng.o
 .debug_aranges
                0x00000738       0x40 ./source/drivers/ocotp/bl_ocotp.o
 .debug_aranges
                0x00000778       0x60 ./source/drivers/microseconds/microseconds_pit.o
 .debug_aranges
                0x000007d8       0xa0 ./source/drivers/flexspi/bl_flexspi.o
 .debug_aranges
                0x00000878       0x98 ./source/drivers/dcp/bl_dcp.o
 .debug_aranges
                0x00000910       0x30 ./source/crc/crc32.o
 .debug_aranges
                0x00000940      0x120 ./source/bootloader/src/bl_command.o
 .debug_aranges
                0x00000a60       0x18 ./source/bootloader/src/bl_context.o
 .debug_aranges
                0x00000a78       0x20 ./source/bootloader/src/bl_exception_handler.o
 .debug_aranges
                0x00000a98       0x20 ./source/bootloader/src/bl_keyblob_dcp.o
 .debug_aranges
                0x00000ab8       0x40 ./source/bootloader/src/bl_main.o
 .debug_aranges
                0x00000af8       0xb8 ./source/bootloader/src/bl_reliable_update_common.o
 .debug_aranges
                0x00000bb0       0x20 ./source/bootloader/src/bl_shutdown_cleanup.o
 .debug_aranges
                0x00000bd0       0x40 ./source/bootloader/src/lpuart_peripheral_interface.o
 .debug_aranges
                0x00000c10       0x78 ./source/bootloader/src/usb_hid_msc_peripheral_interface.o
 .debug_aranges
                0x00000c88      0x150 ./drivers/fsl_clock.o
 .debug_aranges
                0x00000dd8      0x138 ./drivers/fsl_lpspi.o
 .debug_aranges
                0x00000f10      0x128 ./drivers/fsl_lpuart.o
 .debug_aranges
                0x00001038       0x30 ./device/system_MIMXRT1062.o
 .debug_aranges
                0x00001068      0x110 ./component/osa/fsl_os_abstraction_bm.o
 .debug_aranges
                0x00001178       0xb0 ./MIMXRT1062/bl_api.o
 .debug_aranges
                0x00001228       0x70 ./MIMXRT1062/bl_clock_config_MIMXRT1062.o
 .debug_aranges
                0x00001298       0x18 ./MIMXRT1062/bl_peripherals_MIMXRT1062.o
 .debug_aranges
                0x000012b0       0x18 ./MIMXRT1062/external_memory_property_map_MIMXRT1062.o
 .debug_aranges
                0x000012c8       0xe8 ./MIMXRT1062/hardware_init_MIMXRT1062.o
 .debug_aranges
                0x000013b0       0x18 ./MIMXRT1062/memory_map_MIMXRT1062.o
 .debug_aranges
                0x000013c8       0x38 ./MIMXRT1062/pinmux_utility_imxrt_series.o

.debug_ranges   0x00000000     0x2a30
 .debug_ranges  0x00000000      0x178 ./usb/device/source/ehci/usb_device_ehci.o
 .debug_ranges  0x00000178       0xb0 ./usb/device/source/usb_device_ch9.o
 .debug_ranges  0x00000228      0x120 ./usb/device/source/usb_device_dci.o
 .debug_ranges  0x00000348       0xd0 ./usb/device/class/hid/usb_device_hid.o
 .debug_ranges  0x00000418       0x70 ./usb/device/class/usb_device_class.o
 .debug_ranges  0x00000488       0x18 ./startup/startup.o
 .debug_ranges  0x000004a0       0x40 ./source/utilities/src/fsl_rtos_abstraction.o
 .debug_ranges  0x000004e0       0x30 ./source/usb/bm_composite/hid_bootloader.o
 .debug_ranges  0x00000510       0x80 ./source/usb/bm_composite/usb_descriptor.o
 .debug_ranges  0x00000590       0xe8 ./source/sbloader/src/sbloader.o
 .debug_ranges  0x00000678       0x90 ./source/property/src/property_imx.o
 .debug_ranges  0x00000708      0x2a0 ./source/memory/src/flexspi_nor_memory.o
 .debug_ranges  0x000009a8      0x130 ./source/memory/src/memory.o
 .debug_ranges  0x00000ad8       0x28 ./source/memory/src/normal_memory.o
 .debug_ranges  0x00000b00      0x338 ./source/drivers/usdhc/bl_usdhc.o
 .debug_ranges  0x00000e38       0x90 ./source/drivers/trng/bl_trng.o
 .debug_ranges  0x00000ec8       0xb0 ./source/drivers/ocotp/bl_ocotp.o
 .debug_ranges  0x00000f78       0x90 ./source/drivers/microseconds/microseconds_pit.o
 .debug_ranges  0x00001008      0x360 ./source/drivers/flexspi/bl_flexspi.o
 .debug_ranges  0x00001368      0x120 ./source/drivers/dcp/bl_dcp.o
 .debug_ranges  0x00001488       0x38 ./source/crc/crc32.o
 .debug_ranges  0x000014c0      0x1a8 ./source/bootloader/src/bl_command.o
 .debug_ranges  0x00001668       0x10 ./source/bootloader/src/bl_exception_handler.o
 .debug_ranges  0x00001678       0x28 ./source/bootloader/src/bl_keyblob_dcp.o
 .debug_ranges  0x000016a0       0xb8 ./source/bootloader/src/bl_main.o
 .debug_ranges  0x00001758      0x238 ./source/bootloader/src/bl_reliable_update_common.o
 .debug_ranges  0x00001990       0x28 ./source/bootloader/src/bl_shutdown_cleanup.o
 .debug_ranges  0x000019b8       0x78 ./source/bootloader/src/lpuart_peripheral_interface.o
 .debug_ranges  0x00001a30      0x130 ./source/bootloader/src/usb_hid_msc_peripheral_interface.o
 .debug_ranges  0x00001b60      0x188 ./drivers/fsl_clock.o
 .debug_ranges  0x00001ce8      0x3d8 ./drivers/fsl_lpspi.o
 .debug_ranges  0x000020c0      0x1a8 ./drivers/fsl_lpuart.o
 .debug_ranges  0x00002268       0x20 ./device/system_MIMXRT1062.o
 .debug_ranges  0x00002288      0x350 ./component/osa/fsl_os_abstraction_bm.o
 .debug_ranges  0x000025d8       0xa0 ./MIMXRT1062/bl_api.o
 .debug_ranges  0x00002678       0xb8 ./MIMXRT1062/bl_clock_config_MIMXRT1062.o
 .debug_ranges  0x00002730      0x240 ./MIMXRT1062/hardware_init_MIMXRT1062.o
 .debug_ranges  0x00002970       0xc0 ./MIMXRT1062/pinmux_utility_imxrt_series.o

.debug_line     0x00000000    0x1f4ef
 .debug_line    0x00000000     0x172b ./usb/device/source/ehci/usb_device_ehci.o
 .debug_line    0x0000172b      0xea4 ./usb/device/source/usb_device_ch9.o
 .debug_line    0x000025cf      0xc63 ./usb/device/source/usb_device_dci.o
 .debug_line    0x00003232      0xd14 ./usb/device/class/hid/usb_device_hid.o
 .debug_line    0x00003f46      0xaf6 ./usb/device/class/usb_device_class.o
 .debug_line    0x00004a3c       0x6e ./startup/crt0_gcc.o
 .debug_line    0x00004aaa      0x349 ./startup/startup.o
 .debug_line    0x00004df3      0x196 ./startup/startup_MIMXRT1062.o
 .debug_line    0x00004f89      0x51b ./source/utilities/src/fsl_rtos_abstraction.o
 .debug_line    0x000054a4      0x55b ./source/usb/bm_composite/composite.o
 .debug_line    0x000059ff      0x7cd ./source/usb/bm_composite/hid_bootloader.o
 .debug_line    0x000061cc      0x746 ./source/usb/bm_composite/usb_descriptor.o
 .debug_line    0x00006912     0x1019 ./source/sbloader/src/sbloader.o
 .debug_line    0x0000792b      0xa01 ./source/property/src/property_imx.o
 .debug_line    0x0000832c     0x124a ./source/memory/src/flexspi_nor_memory.o
 .debug_line    0x00009576      0xb0d ./source/memory/src/memory.o
 .debug_line    0x0000a083      0x4ae ./source/memory/src/normal_memory.o
 .debug_line    0x0000a531       0x93 ./source/memory/src/pattern_fill_gcc.o
 .debug_line    0x0000a5c4     0x1a6d ./source/drivers/usdhc/bl_usdhc.o
 .debug_line    0x0000c031      0x874 ./source/drivers/trng/bl_trng.o
 .debug_line    0x0000c8a5      0x7f5 ./source/drivers/ocotp/bl_ocotp.o
 .debug_line    0x0000d09a      0x6b2 ./source/drivers/microseconds/microseconds_pit.o
 .debug_line    0x0000d74c     0x13a4 ./source/drivers/flexspi/bl_flexspi.o
 .debug_line    0x0000eaf0      0xd5b ./source/drivers/dcp/bl_dcp.o
 .debug_line    0x0000f84b      0x471 ./source/crc/crc32.o
 .debug_line    0x0000fcbc     0x1550 ./source/bootloader/src/bl_command.o
 .debug_line    0x0001120c      0x533 ./source/bootloader/src/bl_context.o
 .debug_line    0x0001173f      0x395 ./source/bootloader/src/bl_exception_handler.o
 .debug_line    0x00011ad4      0x4d3 ./source/bootloader/src/bl_keyblob_dcp.o
 .debug_line    0x00011fa7      0xa05 ./source/bootloader/src/bl_main.o
 .debug_line    0x000129ac     0x11a5 ./source/bootloader/src/bl_reliable_update_common.o
 .debug_line    0x00013b51      0x704 ./source/bootloader/src/bl_shutdown_cleanup.o
 .debug_line    0x00014255      0x7ac ./source/bootloader/src/lpuart_peripheral_interface.o
 .debug_line    0x00014a01      0xede ./source/bootloader/src/usb_hid_msc_peripheral_interface.o
 .debug_line    0x000158df     0x125b ./drivers/fsl_clock.o
 .debug_line    0x00016b3a     0x2396 ./drivers/fsl_lpspi.o
 .debug_line    0x00018ed0     0x1710 ./drivers/fsl_lpuart.o
 .debug_line    0x0001a5e0      0x1f0 ./device/system_MIMXRT1062.o
 .debug_line    0x0001a7d0      0xcbd ./component/osa/fsl_os_abstraction_bm.o
 .debug_line    0x0001b48d      0x74d ./MIMXRT1062/bl_api.o
 .debug_line    0x0001bbda      0xc09 ./MIMXRT1062/bl_clock_config_MIMXRT1062.o
 .debug_line    0x0001c7e3      0x567 ./MIMXRT1062/bl_peripherals_MIMXRT1062.o
 .debug_line    0x0001cd4a      0x4c0 ./MIMXRT1062/external_memory_property_map_MIMXRT1062.o
 .debug_line    0x0001d20a     0x161f ./MIMXRT1062/hardware_init_MIMXRT1062.o
 .debug_line    0x0001e829      0x533 ./MIMXRT1062/memory_map_MIMXRT1062.o
 .debug_line    0x0001ed5c      0x793 ./MIMXRT1062/pinmux_utility_imxrt_series.o

.debug_str      0x00000000    0x16ee3
 .debug_str     0x00000000     0x2269 ./usb/device/source/ehci/usb_device_ehci.o
                               0x23bb (size before relaxing)
 .debug_str     0x00002269     0x1192 ./usb/device/source/usb_device_ch9.o
                               0x25f1 (size before relaxing)
 .debug_str     0x000033fb      0x1ce ./usb/device/source/usb_device_dci.o
                               0x2210 (size before relaxing)
 .debug_str     0x000035c9      0x44f ./usb/device/class/hid/usb_device_hid.o
                               0x1d2d (size before relaxing)
 .debug_str     0x00003a18      0x214 ./usb/device/class/usb_device_class.o
                               0x1e78 (size before relaxing)
 .debug_str     0x00003c2c       0x24 ./startup/crt0_gcc.o
                                 0x6a (size before relaxing)
 .debug_str     0x00003c50      0x29a ./startup/startup.o
                                0x49d (size before relaxing)
 .debug_str     0x00003eea       0x20 ./startup/startup_MIMXRT1062.o
                                 0x74 (size before relaxing)
 .debug_str     0x00003f0a       0xb9 ./source/utilities/src/fsl_rtos_abstraction.o
                                0xff0 (size before relaxing)
 .debug_str     0x00003fc3      0x291 ./source/usb/bm_composite/composite.o
                               0x1802 (size before relaxing)
 .debug_str     0x00004254      0x305 ./source/usb/bm_composite/hid_bootloader.o
                               0x1d08 (size before relaxing)
 .debug_str     0x00004559      0x4ac ./source/usb/bm_composite/usb_descriptor.o
                               0x1de8 (size before relaxing)
 .debug_str     0x00004a05     0x20b0 ./source/sbloader/src/sbloader.o
                               0x34be (size before relaxing)
 .debug_str     0x00006ab5      0xa0a ./source/property/src/property_imx.o
                               0x326b (size before relaxing)
 .debug_str     0x000074bf     0x132e ./source/memory/src/flexspi_nor_memory.o
                               0x3adb (size before relaxing)
 .debug_str     0x000087ed       0xb7 ./source/memory/src/memory.o
                               0x250f (size before relaxing)
 .debug_str     0x000088a4       0x94 ./source/memory/src/normal_memory.o
                               0x1372 (size before relaxing)
 .debug_str     0x00008938       0x28 ./source/memory/src/pattern_fill_gcc.o
                                 0x7c (size before relaxing)
 .debug_str     0x00008960     0x2aad ./source/drivers/usdhc/bl_usdhc.o
                               0x3b4d (size before relaxing)
 .debug_str     0x0000b40d      0x65d ./source/drivers/trng/bl_trng.o
                               0x1590 (size before relaxing)
 .debug_str     0x0000ba6a      0x1e9 ./source/drivers/ocotp/bl_ocotp.o
                               0x1810 (size before relaxing)
 .debug_str     0x0000bc53      0x19d ./source/drivers/microseconds/microseconds_pit.o
                               0x1835 (size before relaxing)
 .debug_str     0x0000bdf0      0xafb ./source/drivers/flexspi/bl_flexspi.o
                               0x348c (size before relaxing)
 .debug_str     0x0000c8eb      0x49d ./source/drivers/dcp/bl_dcp.o
                                0xd62 (size before relaxing)
 .debug_str     0x0000cd88       0x2f ./source/crc/crc32.o
                                0xf88 (size before relaxing)
 .debug_str     0x0000cdb7      0xccd ./source/bootloader/src/bl_command.o
                               0x3f25 (size before relaxing)
 .debug_str     0x0000da84       0x26 ./source/bootloader/src/bl_context.o
                               0x21aa (size before relaxing)
 .debug_str     0x0000daaa       0x42 ./source/bootloader/src/bl_exception_handler.o
                                0x7ef (size before relaxing)
 .debug_str     0x0000daec      0x127 ./source/bootloader/src/bl_keyblob_dcp.o
                                0xcdc (size before relaxing)
 .debug_str     0x0000dc13      0x227 ./source/bootloader/src/bl_main.o
                               0x1b24 (size before relaxing)
 .debug_str     0x0000de3a      0x5ae ./source/bootloader/src/bl_reliable_update_common.o
                               0x2e8f (size before relaxing)
 .debug_str     0x0000e3e8       0x8d ./source/bootloader/src/bl_shutdown_cleanup.o
                               0x14ce (size before relaxing)
 .debug_str     0x0000e475      0xaf3 ./source/bootloader/src/lpuart_peripheral_interface.o
                               0x30bc (size before relaxing)
 .debug_str     0x0000ef68      0x36a ./source/bootloader/src/usb_hid_msc_peripheral_interface.o
                               0x4f4a (size before relaxing)
 .debug_str     0x0000f2d2      0xe42 ./drivers/fsl_clock.o
                               0x1f9f (size before relaxing)
 .debug_str     0x00010114     0x1128 ./drivers/fsl_lpspi.o
                               0x32ee (size before relaxing)
 .debug_str     0x0001123c      0x7a3 ./drivers/fsl_lpuart.o
                               0x31bf (size before relaxing)
 .debug_str     0x000119df       0x60 ./device/system_MIMXRT1062.o
                                0x3ad (size before relaxing)
 .debug_str     0x00011a3f      0x535 ./component/osa/fsl_os_abstraction_bm.o
                               0x14b3 (size before relaxing)
 .debug_str     0x00011f74      0xb24 ./MIMXRT1062/bl_api.o
                               0x2dc3 (size before relaxing)
 .debug_str     0x00012a98      0x36f ./MIMXRT1062/bl_clock_config_MIMXRT1062.o
                               0x1ebe (size before relaxing)
 .debug_str     0x00012e07       0x2a ./MIMXRT1062/bl_peripherals_MIMXRT1062.o
                               0x25f3 (size before relaxing)
 .debug_str     0x00012e31       0x38 ./MIMXRT1062/external_memory_property_map_MIMXRT1062.o
                               0x1e32 (size before relaxing)
 .debug_str     0x00012e69     0x3df6 ./MIMXRT1062/hardware_init_MIMXRT1062.o
                               0x76eb (size before relaxing)
 .debug_str     0x00016c5f       0x26 ./MIMXRT1062/memory_map_MIMXRT1062.o
                               0x221d (size before relaxing)
 .debug_str     0x00016c85      0x25e ./MIMXRT1062/pinmux_utility_imxrt_series.o
                               0x2f7b (size before relaxing)

.comment        0x00000000       0x79
 .comment       0x00000000       0x79 ./usb/device/source/ehci/usb_device_ehci.o
                                 0x7a (size before relaxing)
 .comment       0x00000079       0x7a ./usb/device/source/usb_device_ch9.o
 .comment       0x00000079       0x7a ./usb/device/source/usb_device_dci.o
 .comment       0x00000079       0x7a ./usb/device/class/hid/usb_device_hid.o
 .comment       0x00000079       0x7a ./usb/device/class/usb_device_class.o
 .comment       0x00000079       0x7a ./startup/startup.o
 .comment       0x00000079       0x7a ./source/utilities/src/fsl_rtos_abstraction.o
 .comment       0x00000079       0x7a ./source/usb/bm_composite/composite.o
 .comment       0x00000079       0x7a ./source/usb/bm_composite/hid_bootloader.o
 .comment       0x00000079       0x7a ./source/usb/bm_composite/usb_descriptor.o
 .comment       0x00000079       0x7a ./source/sbloader/src/sbloader.o
 .comment       0x00000079       0x7a ./source/property/src/property_imx.o
 .comment       0x00000079       0x7a ./source/memory/src/flexspi_nor_memory.o
 .comment       0x00000079       0x7a ./source/memory/src/memory.o
 .comment       0x00000079       0x7a ./source/memory/src/normal_memory.o
 .comment       0x00000079       0x7a ./source/drivers/usdhc/bl_usdhc.o
 .comment       0x00000079       0x7a ./source/drivers/trng/bl_trng.o
 .comment       0x00000079       0x7a ./source/drivers/ocotp/bl_ocotp.o
 .comment       0x00000079       0x7a ./source/drivers/microseconds/microseconds_pit.o
 .comment       0x00000079       0x7a ./source/drivers/flexspi/bl_flexspi.o
 .comment       0x00000079       0x7a ./source/drivers/dcp/bl_dcp.o
 .comment       0x00000079       0x7a ./source/crc/crc32.o
 .comment       0x00000079       0x7a ./source/bootloader/src/bl_command.o
 .comment       0x00000079       0x7a ./source/bootloader/src/bl_context.o
 .comment       0x00000079       0x7a ./source/bootloader/src/bl_exception_handler.o
 .comment       0x00000079       0x7a ./source/bootloader/src/bl_keyblob_dcp.o
 .comment       0x00000079       0x7a ./source/bootloader/src/bl_main.o
 .comment       0x00000079       0x7a ./source/bootloader/src/bl_reliable_update_common.o
 .comment       0x00000079       0x7a ./source/bootloader/src/bl_shutdown_cleanup.o
 .comment       0x00000079       0x7a ./source/bootloader/src/lpuart_peripheral_interface.o
 .comment       0x00000079       0x7a ./source/bootloader/src/usb_hid_msc_peripheral_interface.o
 .comment       0x00000079       0x7a ./drivers/fsl_clock.o
 .comment       0x00000079       0x7a ./drivers/fsl_lpspi.o
 .comment       0x00000079       0x7a ./drivers/fsl_lpuart.o
 .comment       0x00000079       0x7a ./device/system_MIMXRT1062.o
 .comment       0x00000079       0x7a ./component/osa/fsl_os_abstraction_bm.o
 .comment       0x00000079       0x7a ./MIMXRT1062/bl_api.o
 .comment       0x00000079       0x7a ./MIMXRT1062/bl_clock_config_MIMXRT1062.o
 .comment       0x00000079       0x7a ./MIMXRT1062/bl_peripherals_MIMXRT1062.o
 .comment       0x00000079       0x7a ./MIMXRT1062/external_memory_property_map_MIMXRT1062.o
 .comment       0x00000079       0x7a ./MIMXRT1062/hardware_init_MIMXRT1062.o
 .comment       0x00000079       0x7a ./MIMXRT1062/memory_map_MIMXRT1062.o
 .comment       0x00000079       0x7a ./MIMXRT1062/pinmux_utility_imxrt_series.o

.debug_frame    0x00000000     0x3594
 .debug_frame   0x00000000      0x198 ./usb/device/source/ehci/usb_device_ehci.o
 .debug_frame   0x00000198      0x1d4 ./usb/device/source/usb_device_ch9.o
 .debug_frame   0x0000036c      0x1c0 ./usb/device/source/usb_device_dci.o
 .debug_frame   0x0000052c      0x11c ./usb/device/class/hid/usb_device_hid.o
 .debug_frame   0x00000648      0x140 ./usb/device/class/usb_device_class.o
 .debug_frame   0x00000788       0x30 ./startup/startup.o
 .debug_frame   0x000007b8       0xb4 ./source/utilities/src/fsl_rtos_abstraction.o
 .debug_frame   0x0000086c       0x74 ./source/usb/bm_composite/hid_bootloader.o
 .debug_frame   0x000008e0       0x94 ./source/usb/bm_composite/usb_descriptor.o
 .debug_frame   0x00000974      0x24c ./source/sbloader/src/sbloader.o
 .debug_frame   0x00000bc0       0xac ./source/property/src/property_imx.o
 .debug_frame   0x00000c6c      0x1ec ./source/memory/src/flexspi_nor_memory.o
 .debug_frame   0x00000e58      0x168 ./source/memory/src/memory.o
 .debug_frame   0x00000fc0       0x6c ./source/memory/src/normal_memory.o
 .debug_frame   0x0000102c      0x294 ./source/drivers/usdhc/bl_usdhc.o
 .debug_frame   0x000012c0       0x88 ./source/drivers/trng/bl_trng.o
 .debug_frame   0x00001348       0xa8 ./source/drivers/ocotp/bl_ocotp.o
 .debug_frame   0x000013f0       0xd0 ./source/drivers/microseconds/microseconds_pit.o
 .debug_frame   0x000014c0      0x1d0 ./source/drivers/flexspi/bl_flexspi.o
 .debug_frame   0x00001690      0x1e4 ./source/drivers/dcp/bl_dcp.o
 .debug_frame   0x00001874       0x58 ./source/crc/crc32.o
 .debug_frame   0x000018cc      0x3d8 ./source/bootloader/src/bl_command.o
 .debug_frame   0x00001ca4       0x20 ./source/bootloader/src/bl_exception_handler.o
 .debug_frame   0x00001cc4       0x3c ./source/bootloader/src/bl_keyblob_dcp.o
 .debug_frame   0x00001d00       0x8c ./source/bootloader/src/bl_main.o
 .debug_frame   0x00001d8c      0x248 ./source/bootloader/src/bl_reliable_update_common.o
 .debug_frame   0x00001fd4       0x2c ./source/bootloader/src/bl_shutdown_cleanup.o
 .debug_frame   0x00002000       0xac ./source/bootloader/src/lpuart_peripheral_interface.o
 .debug_frame   0x000020ac      0x164 ./source/bootloader/src/usb_hid_msc_peripheral_interface.o
 .debug_frame   0x00002210      0x304 ./drivers/fsl_clock.o
 .debug_frame   0x00002514      0x3d0 ./drivers/fsl_lpspi.o
 .debug_frame   0x000028e4      0x360 ./drivers/fsl_lpuart.o
 .debug_frame   0x00002c44       0x40 ./device/system_MIMXRT1062.o
 .debug_frame   0x00002c84      0x2b8 ./component/osa/fsl_os_abstraction_bm.o
 .debug_frame   0x00002f3c      0x17c ./MIMXRT1062/bl_api.o
 .debug_frame   0x000030b8      0x108 ./MIMXRT1062/bl_clock_config_MIMXRT1062.o
 .debug_frame   0x000031c0      0x298 ./MIMXRT1062/hardware_init_MIMXRT1062.o
 .debug_frame   0x00003458       0x68 ./MIMXRT1062/pinmux_utility_imxrt_series.o
 .debug_frame   0x000034c0       0x2c c:/nxp/mcuxpressoide_11.2.0_4120/ide/plugins/com.nxp.mcuxpresso.tools.win32_11.2.0.202001021529/tools/bin/../lib/gcc/arm-none-eabi/9.2.1/thumb/v7e-m+dp/hard\libgcc.a(_aeabi_uldivmod.o)
 .debug_frame   0x000034ec       0x34 c:/nxp/mcuxpressoide_11.2.0_4120/ide/plugins/com.nxp.mcuxpresso.tools.win32_11.2.0.202001021529/tools/bin/../lib/gcc/arm-none-eabi/9.2.1/thumb/v7e-m+dp/hard\libgcc.a(_udivmoddi4.o)
 .debug_frame   0x00003520       0x2c c:/nxp/mcuxpressoide_11.2.0_4120/ide/plugins/com.nxp.mcuxpresso.tools.win32_11.2.0.202001021529/tools/bin/../lib/gcc/arm-none-eabi/9.2.1/../../../../arm-none-eabi/lib/thumb/v7e-m+dp/hard\libc_nano.a(lib_a-memcmp.o)
 .debug_frame   0x0000354c       0x28 c:/nxp/mcuxpressoide_11.2.0_4120/ide/plugins/com.nxp.mcuxpresso.tools.win32_11.2.0.202001021529/tools/bin/../lib/gcc/arm-none-eabi/9.2.1/../../../../arm-none-eabi/lib/thumb/v7e-m+dp/hard\libc_nano.a(lib_a-memcpy-stub.o)
 .debug_frame   0x00003574       0x20 c:/nxp/mcuxpressoide_11.2.0_4120/ide/plugins/com.nxp.mcuxpresso.tools.win32_11.2.0.202001021529/tools/bin/../lib/gcc/arm-none-eabi/9.2.1/../../../../arm-none-eabi/lib/thumb/v7e-m+dp/hard\libc_nano.a(lib_a-memset.o)

Cross Reference Table

Symbol                                            File
ACMP1_IRQHandler                                  ./startup/startup_MIMXRT1062.o
ACMP2_IRQHandler                                  ./startup/startup_MIMXRT1062.o
ACMP3_IRQHandler                                  ./startup/startup_MIMXRT1062.o
ACMP4_IRQHandler                                  ./startup/startup_MIMXRT1062.o
ADC1_IRQHandler                                   ./startup/startup_MIMXRT1062.o
ADC2_IRQHandler                                   ./startup/startup_MIMXRT1062.o
ADC_ETC_ERROR_IRQ_IRQHandler                      ./startup/startup_MIMXRT1062.o
ADC_ETC_IRQ0_IRQHandler                           ./startup/startup_MIMXRT1062.o
ADC_ETC_IRQ1_IRQHandler                           ./startup/startup_MIMXRT1062.o
ADC_ETC_IRQ2_IRQHandler                           ./startup/startup_MIMXRT1062.o
ANATOP_EVENT0_IRQHandler                          ./startup/startup_MIMXRT1062.o
ANATOP_EVENT1_IRQHandler                          ./startup/startup_MIMXRT1062.o
ANATOP_TAMP_LOW_HIGH_IRQHandler                   ./startup/startup_MIMXRT1062.o
ANATOP_TEMP_PANIC_IRQHandler                      ./startup/startup_MIMXRT1062.o
BEE_IRQHandler                                    ./startup/startup_MIMXRT1062.o
BOARD_InitBootPins                                ./board/pin_mux.o
BusFault_Handler                                  ./startup/startup_MIMXRT1062.o
CAN1_DriverIRQHandler                             ./startup/startup_MIMXRT1062.o
CAN1_IRQHandler                                   ./startup/startup_MIMXRT1062.o
CAN2_DriverIRQHandler                             ./startup/startup_MIMXRT1062.o
CAN2_IRQHandler                                   ./startup/startup_MIMXRT1062.o
CANFD_DriverIRQHandler                            ./startup/startup_MIMXRT1062.o
CANFD_IRQHandler                                  ./startup/startup_MIMXRT1062.o
CCM_1_IRQHandler                                  ./startup/startup_MIMXRT1062.o
CCM_2_IRQHandler                                  ./startup/startup_MIMXRT1062.o
CLOCK_DeinitArmPll                                ./drivers/fsl_clock.o
CLOCK_DeinitAudioPll                              ./drivers/fsl_clock.o
CLOCK_DeinitEnetPll                               ./drivers/fsl_clock.o
CLOCK_DeinitExternalClk                           ./drivers/fsl_clock.o
CLOCK_DeinitRcOsc24M                              ./drivers/fsl_clock.o
CLOCK_DeinitSysPfd                                ./drivers/fsl_clock.o
CLOCK_DeinitSysPll                                ./drivers/fsl_clock.o
CLOCK_DeinitUsb1Pfd                               ./drivers/fsl_clock.o
CLOCK_DeinitUsb1Pll                               ./drivers/fsl_clock.o
CLOCK_DeinitUsb2Pll                               ./drivers/fsl_clock.o
CLOCK_DeinitVideoPll                              ./drivers/fsl_clock.o
CLOCK_DisableUsbhs0PhyPllClock                    ./drivers/fsl_clock.o
CLOCK_DisableUsbhs1PhyPllClock                    ./drivers/fsl_clock.o
CLOCK_EnableUsbhs0Clock                           ./drivers/fsl_clock.o
CLOCK_EnableUsbhs0PhyPllClock                     ./drivers/fsl_clock.o
CLOCK_EnableUsbhs1Clock                           ./drivers/fsl_clock.o
CLOCK_EnableUsbhs1PhyPllClock                     ./drivers/fsl_clock.o
CLOCK_GetAhbFreq                                  ./drivers/fsl_clock.o
CLOCK_GetFreq                                     ./drivers/fsl_clock.o
CLOCK_GetIpgFreq                                  ./drivers/fsl_clock.o
CLOCK_GetPerClkFreq                               ./drivers/fsl_clock.o
CLOCK_GetPllFreq                                  ./drivers/fsl_clock.o
CLOCK_GetSemcFreq                                 ./drivers/fsl_clock.o
CLOCK_GetSysPfdFreq                               ./drivers/fsl_clock.o
CLOCK_GetUsb1PfdFreq                              ./drivers/fsl_clock.o
CLOCK_InitArmPll                                  ./drivers/fsl_clock.o
CLOCK_InitAudioPll                                ./drivers/fsl_clock.o
CLOCK_InitEnetPll                                 ./drivers/fsl_clock.o
CLOCK_InitExternalClk                             ./drivers/fsl_clock.o
CLOCK_InitRcOsc24M                                ./drivers/fsl_clock.o
CLOCK_InitSysPfd                                  ./drivers/fsl_clock.o
CLOCK_InitSysPll                                  ./drivers/fsl_clock.o
CLOCK_InitUsb1Pfd                                 ./drivers/fsl_clock.o
CLOCK_InitUsb1Pll                                 ./drivers/fsl_clock.o
CLOCK_InitUsb2Pll                                 ./drivers/fsl_clock.o
CLOCK_InitVideoPll                                ./drivers/fsl_clock.o
CLOCK_SwitchOsc                                   ./drivers/fsl_clock.o
CORE_IRQHandler                                   ./startup/startup_MIMXRT1062.o
CSI_IRQHandler                                    ./startup/startup_MIMXRT1062.o
CSU_IRQHandler                                    ./startup/startup_MIMXRT1062.o
CTI0_ERROR_IRQHandler                             ./startup/startup_MIMXRT1062.o
CTI1_ERROR_IRQHandler                             ./startup/startup_MIMXRT1062.o
CardInsertDetect                                  ./source/drivers/sdmmc/bl_host.o
                                                  ./source/drivers/sdmmc/bl_sd.o
DCDC_IRQHandler                                   ./startup/startup_MIMXRT1062.o
DCP_IRQHandler                                    ./startup/startup_MIMXRT1062.o
DCP_VMI_IRQHandler                                ./startup/startup_MIMXRT1062.o
DMA0_DMA16_DriverIRQHandler                       ./startup/startup_MIMXRT1062.o
DMA0_DMA16_IRQHandler                             ./startup/startup_MIMXRT1062.o
DMA10_DMA26_DriverIRQHandler                      ./startup/startup_MIMXRT1062.o
DMA10_DMA26_IRQHandler                            ./startup/startup_MIMXRT1062.o
DMA11_DMA27_DriverIRQHandler                      ./startup/startup_MIMXRT1062.o
DMA11_DMA27_IRQHandler                            ./startup/startup_MIMXRT1062.o
DMA12_DMA28_DriverIRQHandler                      ./startup/startup_MIMXRT1062.o
DMA12_DMA28_IRQHandler                            ./startup/startup_MIMXRT1062.o
DMA13_DMA29_DriverIRQHandler                      ./startup/startup_MIMXRT1062.o
DMA13_DMA29_IRQHandler                            ./startup/startup_MIMXRT1062.o
DMA14_DMA30_DriverIRQHandler                      ./startup/startup_MIMXRT1062.o
DMA14_DMA30_IRQHandler                            ./startup/startup_MIMXRT1062.o
DMA15_DMA31_DriverIRQHandler                      ./startup/startup_MIMXRT1062.o
DMA15_DMA31_IRQHandler                            ./startup/startup_MIMXRT1062.o
DMA1_DMA17_DriverIRQHandler                       ./startup/startup_MIMXRT1062.o
DMA1_DMA17_IRQHandler                             ./startup/startup_MIMXRT1062.o
DMA2_DMA18_DriverIRQHandler                       ./startup/startup_MIMXRT1062.o
DMA2_DMA18_IRQHandler                             ./startup/startup_MIMXRT1062.o
DMA3_DMA19_DriverIRQHandler                       ./startup/startup_MIMXRT1062.o
DMA3_DMA19_IRQHandler                             ./startup/startup_MIMXRT1062.o
DMA4_DMA20_DriverIRQHandler                       ./startup/startup_MIMXRT1062.o
DMA4_DMA20_IRQHandler                             ./startup/startup_MIMXRT1062.o
DMA5_DMA21_DriverIRQHandler                       ./startup/startup_MIMXRT1062.o
DMA5_DMA21_IRQHandler                             ./startup/startup_MIMXRT1062.o
DMA6_DMA22_DriverIRQHandler                       ./startup/startup_MIMXRT1062.o
DMA6_DMA22_IRQHandler                             ./startup/startup_MIMXRT1062.o
DMA7_DMA23_DriverIRQHandler                       ./startup/startup_MIMXRT1062.o
DMA7_DMA23_IRQHandler                             ./startup/startup_MIMXRT1062.o
DMA8_DMA24_DriverIRQHandler                       ./startup/startup_MIMXRT1062.o
DMA8_DMA24_IRQHandler                             ./startup/startup_MIMXRT1062.o
DMA9_DMA25_DriverIRQHandler                       ./startup/startup_MIMXRT1062.o
DMA9_DMA25_IRQHandler                             ./startup/startup_MIMXRT1062.o
DMA_ERROR_DriverIRQHandler                        ./startup/startup_MIMXRT1062.o
DMA_ERROR_IRQHandler                              ./startup/startup_MIMXRT1062.o
DebugMon_Handler                                  ./startup/startup_MIMXRT1062.o
DefaultISR                                        ./startup/startup_MIMXRT1062.o
ENC1_IRQHandler                                   ./startup/startup_MIMXRT1062.o
ENC2_IRQHandler                                   ./startup/startup_MIMXRT1062.o
ENC3_IRQHandler                                   ./startup/startup_MIMXRT1062.o
ENC4_IRQHandler                                   ./startup/startup_MIMXRT1062.o
ENET1_1588_Timer_DriverIRQHandler                 ./startup/startup_MIMXRT1062.o
ENET1_1588_Timer_IRQHandler                       ./startup/startup_MIMXRT1062.o
ENET1_DriverIRQHandler                            ./startup/startup_MIMXRT1062.o
ENET1_IRQHandler                                  ./startup/startup_MIMXRT1062.o
ENET2_1588_Timer_DriverIRQHandler                 ./startup/startup_MIMXRT1062.o
ENET2_1588_Timer_IRQHandler                       ./startup/startup_MIMXRT1062.o
ENET2_DriverIRQHandler                            ./startup/startup_MIMXRT1062.o
ENET2_IRQHandler                                  ./startup/startup_MIMXRT1062.o
EWM_IRQHandler                                    ./startup/startup_MIMXRT1062.o
FLEXIO1_DriverIRQHandler                          ./startup/startup_MIMXRT1062.o
FLEXIO1_IRQHandler                                ./startup/startup_MIMXRT1062.o
FLEXIO2_DriverIRQHandler                          ./startup/startup_MIMXRT1062.o
FLEXIO2_IRQHandler                                ./startup/startup_MIMXRT1062.o
FLEXRAM_IRQHandler                                ./startup/startup_MIMXRT1062.o
FLEXSPI2_DriverIRQHandler                         ./startup/startup_MIMXRT1062.o
FLEXSPI2_IRQHandler                               ./startup/startup_MIMXRT1062.o
FLEXSPI_DriverIRQHandler                          ./startup/startup_MIMXRT1062.o
FLEXSPI_IRQHandler                                ./startup/startup_MIMXRT1062.o
GPC_IRQHandler                                    ./startup/startup_MIMXRT1062.o
GPIO1_Combined_0_15_IRQHandler                    ./MIMXRT1062/pinmux_utility_imxrt_series.o
                                                  ./startup/startup_MIMXRT1062.o
GPIO1_Combined_16_31_IRQHandler                   ./startup/startup_MIMXRT1062.o
GPIO1_INT0_IRQHandler                             ./startup/startup_MIMXRT1062.o
GPIO1_INT1_IRQHandler                             ./startup/startup_MIMXRT1062.o
GPIO1_INT2_IRQHandler                             ./startup/startup_MIMXRT1062.o
GPIO1_INT3_IRQHandler                             ./startup/startup_MIMXRT1062.o
GPIO1_INT4_IRQHandler                             ./startup/startup_MIMXRT1062.o
GPIO1_INT5_IRQHandler                             ./startup/startup_MIMXRT1062.o
GPIO1_INT6_IRQHandler                             ./startup/startup_MIMXRT1062.o
GPIO1_INT7_IRQHandler                             ./startup/startup_MIMXRT1062.o
GPIO2_Combined_0_15_IRQHandler                    ./startup/startup_MIMXRT1062.o
GPIO2_Combined_16_31_IRQHandler                   ./startup/startup_MIMXRT1062.o
GPIO3_Combined_0_15_IRQHandler                    ./startup/startup_MIMXRT1062.o
GPIO3_Combined_16_31_IRQHandler                   ./startup/startup_MIMXRT1062.o
GPIO4_Combined_0_15_IRQHandler                    ./startup/startup_MIMXRT1062.o
GPIO4_Combined_16_31_IRQHandler                   ./startup/startup_MIMXRT1062.o
GPIO5_Combined_0_15_IRQHandler                    ./startup/startup_MIMXRT1062.o
GPIO5_Combined_16_31_IRQHandler                   ./startup/startup_MIMXRT1062.o
GPIO_PinInit                                      ./drivers/fsl_gpio.o
                                                  ./board/pin_mux.o
GPIO_PinSetInterruptConfig                        ./drivers/fsl_gpio.o
                                                  ./MIMXRT1062/pinmux_utility_imxrt_series.o
GPIO_PinWrite                                     ./drivers/fsl_gpio.o
GPR_IRQ_IRQHandler                                ./startup/startup_MIMXRT1062.o
GPT1_IRQHandler                                   ./startup/startup_MIMXRT1062.o
GPT2_IRQHandler                                   ./startup/startup_MIMXRT1062.o
HOST_Deinit                                       ./source/drivers/sdmmc/bl_host.o
                                                  ./source/drivers/sdmmc/bl_sd.o
                                                  ./source/drivers/sdmmc/bl_mmc.o
HOST_Init                                         ./source/drivers/sdmmc/bl_host.o
                                                  ./source/drivers/sdmmc/bl_sd.o
                                                  ./source/drivers/sdmmc/bl_mmc.o
HOST_Reset                                        ./source/drivers/sdmmc/bl_host.o
                                                  ./source/drivers/sdmmc/bl_sd.o
                                                  ./source/drivers/sdmmc/bl_mmc.o
HardFault_Handler                                 ./source/bootloader/src/bl_exception_handler.o
                                                  ./startup/startup_MIMXRT1062.o
KPP_IRQHandler                                    ./startup/startup_MIMXRT1062.o
LCDIF_IRQHandler                                  ./startup/startup_MIMXRT1062.o
LIST_AddHead                                      ./component/lists/generic_list.o
LIST_AddPrevElement                               ./component/lists/generic_list.o
LIST_AddTail                                      ./component/lists/generic_list.o
LIST_GetAvailableSize                             ./component/lists/generic_list.o
LIST_GetHead                                      ./component/lists/generic_list.o
LIST_GetList                                      ./component/lists/generic_list.o
LIST_GetNext                                      ./component/lists/generic_list.o
LIST_GetPrev                                      ./component/lists/generic_list.o
LIST_GetSize                                      ./component/lists/generic_list.o
LIST_Init                                         ./component/lists/generic_list.o
LIST_RemoveElement                                ./component/lists/generic_list.o
LIST_RemoveHead                                   ./component/lists/generic_list.o
LPI2C1_DriverIRQHandler                           ./startup/startup_MIMXRT1062.o
LPI2C1_IRQHandler                                 ./startup/startup_MIMXRT1062.o
LPI2C2_DriverIRQHandler                           ./startup/startup_MIMXRT1062.o
LPI2C2_IRQHandler                                 ./startup/startup_MIMXRT1062.o
LPI2C3_DriverIRQHandler                           ./startup/startup_MIMXRT1062.o
LPI2C3_IRQHandler                                 ./startup/startup_MIMXRT1062.o
LPI2C4_DriverIRQHandler                           ./startup/startup_MIMXRT1062.o
LPI2C4_IRQHandler                                 ./startup/startup_MIMXRT1062.o
LPSPI1_DriverIRQHandler                           ./drivers/fsl_lpspi.o
                                                  ./startup/startup_MIMXRT1062.o
LPSPI1_IRQHandler                                 ./startup/startup_MIMXRT1062.o
LPSPI2_DriverIRQHandler                           ./drivers/fsl_lpspi.o
                                                  ./startup/startup_MIMXRT1062.o
LPSPI2_IRQHandler                                 ./startup/startup_MIMXRT1062.o
LPSPI3_DriverIRQHandler                           ./drivers/fsl_lpspi.o
                                                  ./startup/startup_MIMXRT1062.o
LPSPI3_IRQHandler                                 ./startup/startup_MIMXRT1062.o
LPSPI4_DriverIRQHandler                           ./drivers/fsl_lpspi.o
                                                  ./startup/startup_MIMXRT1062.o
LPSPI4_IRQHandler                                 ./startup/startup_MIMXRT1062.o
LPSPI_CheckTransferArgument                       ./drivers/fsl_lpspi.o
LPSPI_Deinit                                      ./drivers/fsl_lpspi.o
LPSPI_GetInstance                                 ./drivers/fsl_lpspi.o
LPSPI_MasterGetDefaultConfig                      ./drivers/fsl_lpspi.o
LPSPI_MasterInit                                  ./drivers/fsl_lpspi.o
LPSPI_MasterSetBaudRate                           ./drivers/fsl_lpspi.o
LPSPI_MasterSetDelayScaler                        ./drivers/fsl_lpspi.o
LPSPI_MasterSetDelayTimes                         ./drivers/fsl_lpspi.o
LPSPI_MasterTransferAbort                         ./drivers/fsl_lpspi.o
LPSPI_MasterTransferBlocking                      ./drivers/fsl_lpspi.o
LPSPI_MasterTransferCreateHandle                  ./drivers/fsl_lpspi.o
LPSPI_MasterTransferGetCount                      ./drivers/fsl_lpspi.o
LPSPI_MasterTransferHandleIRQ                     ./drivers/fsl_lpspi.o
LPSPI_MasterTransferNonBlocking                   ./drivers/fsl_lpspi.o
LPSPI_Reset                                       ./drivers/fsl_lpspi.o
LPSPI_SetDummyData                                ./drivers/fsl_lpspi.o
LPSPI_SlaveGetDefaultConfig                       ./drivers/fsl_lpspi.o
LPSPI_SlaveInit                                   ./drivers/fsl_lpspi.o
LPSPI_SlaveTransferAbort                          ./drivers/fsl_lpspi.o
LPSPI_SlaveTransferCreateHandle                   ./drivers/fsl_lpspi.o
LPSPI_SlaveTransferGetCount                       ./drivers/fsl_lpspi.o
LPSPI_SlaveTransferHandleIRQ                      ./drivers/fsl_lpspi.o
LPSPI_SlaveTransferNonBlocking                    ./drivers/fsl_lpspi.o
LPUART1_DriverIRQHandler                          ./drivers/fsl_lpuart.o
                                                  ./startup/startup_MIMXRT1062.o
LPUART1_IRQHandler                                ./source/bootloader/src/lpuart_peripheral_interface.o
                                                  ./startup/startup_MIMXRT1062.o
LPUART2_DriverIRQHandler                          ./drivers/fsl_lpuart.o
                                                  ./startup/startup_MIMXRT1062.o
LPUART2_IRQHandler                                ./startup/startup_MIMXRT1062.o
LPUART3_DriverIRQHandler                          ./drivers/fsl_lpuart.o
                                                  ./startup/startup_MIMXRT1062.o
LPUART3_IRQHandler                                ./startup/startup_MIMXRT1062.o
LPUART4_DriverIRQHandler                          ./drivers/fsl_lpuart.o
                                                  ./startup/startup_MIMXRT1062.o
LPUART4_IRQHandler                                ./startup/startup_MIMXRT1062.o
LPUART5_DriverIRQHandler                          ./drivers/fsl_lpuart.o
                                                  ./startup/startup_MIMXRT1062.o
LPUART5_IRQHandler                                ./startup/startup_MIMXRT1062.o
LPUART6_DriverIRQHandler                          ./drivers/fsl_lpuart.o
                                                  ./startup/startup_MIMXRT1062.o
LPUART6_IRQHandler                                ./startup/startup_MIMXRT1062.o
LPUART7_DriverIRQHandler                          ./drivers/fsl_lpuart.o
                                                  ./startup/startup_MIMXRT1062.o
LPUART7_IRQHandler                                ./startup/startup_MIMXRT1062.o
LPUART8_DriverIRQHandler                          ./drivers/fsl_lpuart.o
                                                  ./startup/startup_MIMXRT1062.o
LPUART8_IRQHandler                                ./startup/startup_MIMXRT1062.o
LPUART_ClearStatusFlags                           ./drivers/fsl_lpuart.o
LPUART_Deinit                                     ./drivers/fsl_lpuart.o
                                                  ./source/bootloader/src/lpuart_peripheral_interface.o
LPUART_DisableInterrupts                          ./drivers/fsl_lpuart.o
LPUART_EnableInterrupts                           ./drivers/fsl_lpuart.o
                                                  ./source/bootloader/src/lpuart_peripheral_interface.o
LPUART_GetDefaultConfig                           ./drivers/fsl_lpuart.o
                                                  ./source/bootloader/src/lpuart_peripheral_interface.o
LPUART_GetEnabledInterrupts                       ./drivers/fsl_lpuart.o
LPUART_GetInstance                                ./drivers/fsl_lpuart.o
LPUART_GetStatusFlags                             ./drivers/fsl_lpuart.o
                                                  ./source/bootloader/src/lpuart_peripheral_interface.o
LPUART_Init                                       ./drivers/fsl_lpuart.o
                                                  ./source/bootloader/src/lpuart_peripheral_interface.o
LPUART_ReadBlocking                               ./drivers/fsl_lpuart.o
LPUART_SetBaudRate                                ./drivers/fsl_lpuart.o
LPUART_SetSystemIRQ                               ./MIMXRT1062/bl_lpuart_irq_config_MIMXRT1062.o
                                                  ./source/bootloader/src/lpuart_peripheral_interface.o
LPUART_TransferAbortReceive                       ./drivers/fsl_lpuart.o
LPUART_TransferAbortSend                          ./drivers/fsl_lpuart.o
LPUART_TransferCreateHandle                       ./drivers/fsl_lpuart.o
LPUART_TransferGetReceiveCount                    ./drivers/fsl_lpuart.o
LPUART_TransferGetRxRingBufferLength              ./drivers/fsl_lpuart.o
LPUART_TransferGetSendCount                       ./drivers/fsl_lpuart.o
LPUART_TransferHandleErrorIRQ                     ./drivers/fsl_lpuart.o
LPUART_TransferHandleIRQ                          ./drivers/fsl_lpuart.o
LPUART_TransferReceiveNonBlocking                 ./drivers/fsl_lpuart.o
LPUART_TransferSendNonBlocking                    ./drivers/fsl_lpuart.o
LPUART_TransferStartRingBuffer                    ./drivers/fsl_lpuart.o
LPUART_TransferStopRingBuffer                     ./drivers/fsl_lpuart.o
LPUART_WriteBlocking                              ./drivers/fsl_lpuart.o
                                                  ./source/bootloader/src/lpuart_peripheral_interface.o
MMC_BL_Init                                       ./source/drivers/sdmmc/bl_mmc.o
MMC_CheckReadOnly                                 ./source/drivers/sdmmc/bl_mmc.o
MMC_Deinit                                        ./source/drivers/sdmmc/bl_mmc.o
MMC_EraseGroups                                   ./source/drivers/sdmmc/bl_mmc.o
MMC_Init                                          ./source/drivers/sdmmc/bl_mmc.o
MMC_ReadBlocks                                    ./source/drivers/sdmmc/bl_mmc.o
MMC_SelectPartition                               ./source/drivers/sdmmc/bl_mmc.o
MMC_SetBootConfig                                 ./source/drivers/sdmmc/bl_mmc.o
MMC_WriteBlocks                                   ./source/drivers/sdmmc/bl_mmc.o
MemManage_Handler                                 ./startup/startup_MIMXRT1062.o
NMI_Handler                                       ./startup/startup_MIMXRT1062.o
NMI_WAKEUP_IRQHandler                             ./startup/startup_MIMXRT1062.o
OSA_DisableIRQGlobal                              ./component/osa/fsl_os_abstraction_bm.o
OSA_EnableIRQGlobal                               ./component/osa/fsl_os_abstraction_bm.o
OSA_EnterCritical                                 ./component/osa/fsl_os_abstraction_bm.o
                                                  ./source/utilities/src/fsl_rtos_abstraction.o
                                                  ./usb/device/class/usb_device_class.o
                                                  ./usb/device/source/usb_device_dci.o
                                                  ./usb/device/source/ehci/usb_device_ehci.o
OSA_EventClear                                    ./component/osa/fsl_os_abstraction_bm.o
OSA_EventCreate                                   ./component/osa/fsl_os_abstraction_bm.o
OSA_EventDestroy                                  ./component/osa/fsl_os_abstraction_bm.o
OSA_EventGet                                      ./component/osa/fsl_os_abstraction_bm.o
OSA_EventSet                                      ./component/osa/fsl_os_abstraction_bm.o
OSA_EventWait                                     ./component/osa/fsl_os_abstraction_bm.o
OSA_ExitCritical                                  ./component/osa/fsl_os_abstraction_bm.o
                                                  ./source/utilities/src/fsl_rtos_abstraction.o
                                                  ./usb/device/class/usb_device_class.o
                                                  ./usb/device/source/usb_device_dci.o
                                                  ./usb/device/source/ehci/usb_device_ehci.o
OSA_InstallIntHandler                             ./component/osa/fsl_os_abstraction_bm.o
OSA_InterruptDisable                              ./component/osa/fsl_os_abstraction_bm.o
OSA_InterruptEnable                               ./component/osa/fsl_os_abstraction_bm.o
OSA_MemoryAllocate                                ./component/osa/fsl_os_abstraction_bm.o
OSA_MemoryFree                                    ./component/osa/fsl_os_abstraction_bm.o
OSA_MsgQCreate                                    ./component/osa/fsl_os_abstraction_bm.o
OSA_MsgQDestroy                                   ./component/osa/fsl_os_abstraction_bm.o
OSA_MsgQGet                                       ./component/osa/fsl_os_abstraction_bm.o
OSA_MsgQPut                                       ./component/osa/fsl_os_abstraction_bm.o
OSA_MutexCreate                                   ./component/osa/fsl_os_abstraction_bm.o
OSA_MutexDestroy                                  ./component/osa/fsl_os_abstraction_bm.o
OSA_MutexLock                                     ./component/osa/fsl_os_abstraction_bm.o
OSA_MutexUnlock                                   ./component/osa/fsl_os_abstraction_bm.o
OSA_SemaphoreCreate                               ./component/osa/fsl_os_abstraction_bm.o
OSA_SemaphoreDestroy                              ./component/osa/fsl_os_abstraction_bm.o
OSA_SemaphorePost                                 ./component/osa/fsl_os_abstraction_bm.o
OSA_SemaphoreWait                                 ./component/osa/fsl_os_abstraction_bm.o
OSA_TimeDelay                                     ./component/osa/fsl_os_abstraction_bm.o
OSA_TimeDiff                                      ./component/osa/fsl_os_abstraction_bm.o
OSA_TimeGetMsec                                   ./component/osa/fsl_os_abstraction_bm.o
OSA_TimeInit                                      ./component/osa/fsl_os_abstraction_bm.o
PIT_IRQHandler                                    ./startup/startup_MIMXRT1062.o
PWM1_0_IRQHandler                                 ./startup/startup_MIMXRT1062.o
PWM1_1_IRQHandler                                 ./startup/startup_MIMXRT1062.o
PWM1_2_IRQHandler                                 ./startup/startup_MIMXRT1062.o
PWM1_3_IRQHandler                                 ./startup/startup_MIMXRT1062.o
PWM1_FAULT_IRQHandler                             ./startup/startup_MIMXRT1062.o
PWM2_0_IRQHandler                                 ./startup/startup_MIMXRT1062.o
PWM2_1_IRQHandler                                 ./startup/startup_MIMXRT1062.o
PWM2_2_IRQHandler                                 ./startup/startup_MIMXRT1062.o
PWM2_3_IRQHandler                                 ./startup/startup_MIMXRT1062.o
PWM2_FAULT_IRQHandler                             ./startup/startup_MIMXRT1062.o
PWM3_0_IRQHandler                                 ./startup/startup_MIMXRT1062.o
PWM3_1_IRQHandler                                 ./startup/startup_MIMXRT1062.o
PWM3_2_IRQHandler                                 ./startup/startup_MIMXRT1062.o
PWM3_3_IRQHandler                                 ./startup/startup_MIMXRT1062.o
PWM3_FAULT_IRQHandler                             ./startup/startup_MIMXRT1062.o
PWM4_0_IRQHandler                                 ./startup/startup_MIMXRT1062.o
PWM4_1_IRQHandler                                 ./startup/startup_MIMXRT1062.o
PWM4_2_IRQHandler                                 ./startup/startup_MIMXRT1062.o
PWM4_3_IRQHandler                                 ./startup/startup_MIMXRT1062.o
PWM4_FAULT_IRQHandler                             ./startup/startup_MIMXRT1062.o
PXP_IRQHandler                                    ./startup/startup_MIMXRT1062.o
PendSV_Handler                                    ./startup/startup_MIMXRT1062.o
RTWDOG_ClearStatusFlags                           ./MIMXRT1062/bl_api.o
RTWDOG_Deinit                                     ./MIMXRT1062/bl_api.o
RTWDOG_GetDefaultConfig                           ./MIMXRT1062/bl_api.o
RTWDOG_IRQHandler                                 ./startup/startup_MIMXRT1062.o
RTWDOG_Init                                       ./MIMXRT1062/bl_api.o
RTWDOG_disable                                    ./device/system_MIMXRT1062.o
Reserved115_IRQHandler                            ./startup/startup_MIMXRT1062.o
Reserved143_IRQHandler                            ./startup/startup_MIMXRT1062.o
Reserved144_IRQHandler                            ./startup/startup_MIMXRT1062.o
Reserved171_IRQHandler                            ./startup/startup_MIMXRT1062.o
Reserved172_IRQHandler                            ./startup/startup_MIMXRT1062.o
Reserved173_IRQHandler                            ./startup/startup_MIMXRT1062.o
Reserved68_IRQHandler                             ./startup/startup_MIMXRT1062.o
Reserved86_IRQHandler                             ./startup/startup_MIMXRT1062.o
Reserved87_IRQHandler                             ./startup/startup_MIMXRT1062.o
Reset_Handler                                     ./startup/crt0_gcc.o
                                                  ./source/bootloader/src/bl_user_entry.o
                                                  ./source/bootloader/src/bl_main.o
SAI1_DriverIRQHandler                             ./startup/startup_MIMXRT1062.o
SAI1_IRQHandler                                   ./startup/startup_MIMXRT1062.o
SAI2_DriverIRQHandler                             ./startup/startup_MIMXRT1062.o
SAI2_IRQHandler                                   ./startup/startup_MIMXRT1062.o
SAI3_RX_DriverIRQHandler                          ./startup/startup_MIMXRT1062.o
SAI3_RX_IRQHandler                                ./startup/startup_MIMXRT1062.o
SAI3_TX_DriverIRQHandler                          ./startup/startup_MIMXRT1062.o
SAI3_TX_IRQHandler                                ./startup/startup_MIMXRT1062.o
SDK_DelayAtLeastUs                                ./drivers/fsl_common.o
SDK_Free                                          ./drivers/fsl_common.o
SDK_Malloc                                        ./drivers/fsl_common.o
SDMMC_BL_SwitchVoltage                            ./source/drivers/sdmmc/bl_sdmmc.o
                                                  ./source/drivers/sdmmc/bl_sd.o
SDMMC_Delay                                       ./source/drivers/sdmmc/bl_sdmmc.o
                                                  ./source/drivers/sdmmc/bl_mmc.o
SDMMC_ExecuteTuning                               ./source/drivers/sdmmc/bl_sdmmc.o
                                                  ./source/drivers/sdmmc/bl_sd.o
                                                  ./source/drivers/sdmmc/bl_mmc.o
SDMMC_GoIdle                                      ./source/drivers/sdmmc/bl_sdmmc.o
                                                  ./source/drivers/sdmmc/bl_sd.o
                                                  ./source/drivers/sdmmc/bl_mmc.o
SDMMC_SelectCard                                  ./source/drivers/sdmmc/bl_sdmmc.o
                                                  ./source/drivers/sdmmc/bl_sd.o
                                                  ./source/drivers/sdmmc/bl_mmc.o
SDMMC_SendApplicationCommand                      ./source/drivers/sdmmc/bl_sdmmc.o
                                                  ./source/drivers/sdmmc/bl_sd.o
SDMMC_SetBlockCount                               ./source/drivers/sdmmc/bl_sdmmc.o
SDMMC_SetBlockSize                                ./source/drivers/sdmmc/bl_sdmmc.o
                                                  ./source/drivers/sdmmc/bl_sd.o
                                                  ./source/drivers/sdmmc/bl_mmc.o
SDMMC_SetCardInactive                             ./source/drivers/sdmmc/bl_sdmmc.o
SDMMC_SwitchVoltage                               ./source/drivers/sdmmc/bl_sdmmc.o
                                                  ./source/drivers/sdmmc/bl_sd.o
SD_BL_Init                                        ./source/drivers/sdmmc/bl_sd.o
SD_CheckReadOnly                                  ./source/drivers/sdmmc/bl_sd.o
SD_Deinit                                         ./source/drivers/sdmmc/bl_sd.o
SD_EraseBlocks                                    ./source/drivers/sdmmc/bl_sd.o
SD_Init                                           ./source/drivers/sdmmc/bl_sd.o
SD_ReadBlocks                                     ./source/drivers/sdmmc/bl_sd.o
SD_WriteBlocks                                    ./source/drivers/sdmmc/bl_sd.o
SEMC_IRQHandler                                   ./startup/startup_MIMXRT1062.o
SJC_ARM_DEBUG_IRQHandler                          ./startup/startup_MIMXRT1062.o
SJC_IRQHandler                                    ./startup/startup_MIMXRT1062.o
SNVS_HP_WRAPPER_IRQHandler                        ./startup/startup_MIMXRT1062.o
SNVS_HP_WRAPPER_TZ_IRQHandler                     ./startup/startup_MIMXRT1062.o
SNVS_LP_WRAPPER_IRQHandler                        ./startup/startup_MIMXRT1062.o
SPDIF_DriverIRQHandler                            ./startup/startup_MIMXRT1062.o
SPDIF_IRQHandler                                  ./startup/startup_MIMXRT1062.o
SRC_IRQHandler                                    ./startup/startup_MIMXRT1062.o
SVC_Handler                                       ./startup/startup_MIMXRT1062.o
SysTick_Handler                                   ./startup/startup_MIMXRT1062.o
SystemCoreClock                                   ./device/system_MIMXRT1062.o
                                                  ./MIMXRT1062/bl_clock_config_MIMXRT1062.o
                                                  ./source/drivers/flexspi_nor/flexspi_nor_flash.o
SystemCoreClockUpdate                             ./device/system_MIMXRT1062.o
SystemInit                                        ./device/system_MIMXRT1062.o
                                                  ./startup/startup_MIMXRT1062.o
                                                  ./startup/crt0_gcc.o
TMR1_IRQHandler                                   ./startup/startup_MIMXRT1062.o
TMR2_IRQHandler                                   ./startup/startup_MIMXRT1062.o
TMR3_IRQHandler                                   ./startup/startup_MIMXRT1062.o
TMR4_IRQHandler                                   ./startup/startup_MIMXRT1062.o
TRNG_Deinit                                       ./source/drivers/trng/bl_trng.o
TRNG_GetDefaultConfig                             ./source/drivers/trng/bl_trng.o
                                                  ./source/bootloader/src/bl_nor_encrypt_bee.o
                                                  ./source/bootloader/src/bl_keyblob_dcp.o
TRNG_GetRandomData                                ./source/drivers/trng/bl_trng.o
                                                  ./source/bootloader/src/bl_nor_encrypt_bee.o
                                                  ./source/bootloader/src/bl_keyblob_dcp.o
TRNG_IRQHandler                                   ./startup/startup_MIMXRT1062.o
TRNG_Init                                         ./source/drivers/trng/bl_trng.o
                                                  ./source/bootloader/src/bl_nor_encrypt_bee.o
                                                  ./source/bootloader/src/bl_keyblob_dcp.o
TSC_DIG_IRQHandler                                ./startup/startup_MIMXRT1062.o
UART1_InitPins                                    ./board/pin_mux.o
                                                  ./MIMXRT1062/pinmux_utility_imxrt_series.o
UART1_PollForActivity                             ./board/pin_mux.o
                                                  ./MIMXRT1062/pinmux_utility_imxrt_series.o
UART1_RestoreDefault                              ./board/pin_mux.o
                                                  ./MIMXRT1062/pinmux_utility_imxrt_series.o
USB_DeviceCancel                                  ./usb/device/source/usb_device_dci.o
USB_DeviceClassCallback                           ./usb/device/class/usb_device_class.o
                                                  ./usb/device/source/usb_device_ch9.o
USB_DeviceClassDeinit                             ./usb/device/class/usb_device_class.o
                                                  ./source/bootloader/src/usb_hid_msc_peripheral_interface.o
USB_DeviceClassEvent                              ./usb/device/class/usb_device_class.o
                                                  ./usb/device/source/usb_device_ch9.o
USB_DeviceClassGetDeviceHandle                    ./usb/device/class/usb_device_class.o
                                                  ./usb/device/class/hid/usb_device_hid.o
USB_DeviceClassGetSpeed                           ./usb/device/class/usb_device_class.o
                                                  ./source/bootloader/src/usb_hid_msc_peripheral_interface.o
USB_DeviceClassInit                               ./usb/device/class/usb_device_class.o
                                                  ./source/bootloader/src/usb_hid_msc_peripheral_interface.o
USB_DeviceControlPipeInit                         ./usb/device/source/usb_device_ch9.o
                                                  ./usb/device/class/usb_device_class.o
USB_DeviceDeinit                                  ./usb/device/source/usb_device_dci.o
                                                  ./usb/device/class/usb_device_class.o
USB_DeviceDeinitEndpoint                          ./usb/device/source/usb_device_dci.o
                                                  ./usb/device/class/hid/usb_device_hid.o
                                                  ./usb/device/source/usb_device_ch9.o
USB_DeviceEhciCancel                              ./usb/device/source/ehci/usb_device_ehci.o
                                                  ./usb/device/source/usb_device_dci.o
USB_DeviceEhciControl                             ./usb/device/source/ehci/usb_device_ehci.o
                                                  ./usb/device/source/usb_device_dci.o
USB_DeviceEhciDeinit                              ./usb/device/source/ehci/usb_device_ehci.o
                                                  ./usb/device/source/usb_device_dci.o
USB_DeviceEhciInit                                ./usb/device/source/ehci/usb_device_ehci.o
                                                  ./usb/device/source/usb_device_dci.o
USB_DeviceEhciIsrFunction                         ./usb/device/source/ehci/usb_device_ehci.o
                                                  ./source/bootloader/src/usb_hid_msc_peripheral_interface.o
USB_DeviceEhciRecv                                ./usb/device/source/ehci/usb_device_ehci.o
                                                  ./usb/device/source/usb_device_dci.o
USB_DeviceEhciSend                                ./usb/device/source/ehci/usb_device_ehci.o
                                                  ./usb/device/source/usb_device_dci.o
USB_DeviceGetStatus                               ./usb/device/source/usb_device_dci.o
                                                  ./usb/device/class/usb_device_class.o
                                                  ./usb/device/source/usb_device_ch9.o
USB_DeviceGetVersion                              ./usb/device/source/usb_device_dci.o
USB_DeviceHidDeinit                               ./usb/device/class/hid/usb_device_hid.o
                                                  ./usb/device/class/usb_device_class.o
USB_DeviceHidEvent                                ./usb/device/class/hid/usb_device_hid.o
                                                  ./usb/device/class/usb_device_class.o
USB_DeviceHidInit                                 ./usb/device/class/hid/usb_device_hid.o
                                                  ./usb/device/class/usb_device_class.o
USB_DeviceHidRecv                                 ./usb/device/class/hid/usb_device_hid.o
                                                  ./source/bootloader/src/usb_hid_msc_peripheral_interface.o
                                                  ./source/usb/bm_composite/hid_bootloader.o
USB_DeviceHidSend                                 ./usb/device/class/hid/usb_device_hid.o
                                                  ./source/bootloader/src/usb_hid_msc_peripheral_interface.o
USB_DeviceInit                                    ./usb/device/source/usb_device_dci.o
                                                  ./usb/device/class/usb_device_class.o
USB_DeviceInitEndpoint                            ./usb/device/source/usb_device_dci.o
                                                  ./usb/device/class/hid/usb_device_hid.o
                                                  ./usb/device/source/usb_device_ch9.o
USB_DeviceNotificationTrigger                     ./usb/device/source/usb_device_dci.o
                                                  ./usb/device/source/ehci/usb_device_ehci.o
USB_DeviceRecvRequest                             ./usb/device/source/usb_device_dci.o
                                                  ./usb/device/class/hid/usb_device_hid.o
                                                  ./usb/device/source/usb_device_ch9.o
USB_DeviceRun                                     ./usb/device/source/usb_device_dci.o
                                                  ./source/bootloader/src/usb_hid_msc_peripheral_interface.o
USB_DeviceSendRequest                             ./usb/device/source/usb_device_dci.o
                                                  ./usb/device/class/hid/usb_device_hid.o
                                                  ./usb/device/source/usb_device_ch9.o
USB_DeviceSetStatus                               ./usb/device/source/usb_device_dci.o
                                                  ./usb/device/source/usb_device_ch9.o
USB_DeviceStallEndpoint                           ./usb/device/source/usb_device_dci.o
                                                  ./usb/device/class/hid/usb_device_hid.o
                                                  ./usb/device/source/usb_device_ch9.o
USB_DeviceStop                                    ./usb/device/source/usb_device_dci.o
USB_DeviceUnstallEndpoint                         ./usb/device/source/usb_device_dci.o
                                                  ./usb/device/class/hid/usb_device_hid.o
                                                  ./usb/device/source/usb_device_ch9.o
USB_EhciLowPowerPhyInit                           ./usb/phy/usb_phy.o
USB_EhciPhyDeinit                                 ./usb/phy/usb_phy.o
USB_EhciPhyGetBase                                ./usb/phy/usb_phy.o
USB_EhciPhyInit                                   ./usb/phy/usb_phy.o
USB_EhcihostPhyDisconnectDetectCmd                ./usb/phy/usb_phy.o
USB_OTG1_IRQHandler                               ./source/bootloader/src/usb_hid_msc_peripheral_interface.o
                                                  ./startup/startup_MIMXRT1062.o
USB_OTG2_IRQHandler                               ./startup/startup_MIMXRT1062.o
USB_PHY1_IRQHandler                               ./startup/startup_MIMXRT1062.o
USB_PHY2_IRQHandler                               ./startup/startup_MIMXRT1062.o
USDHC1_DriverIRQHandler                           ./source/drivers/usdhc/bl_usdhc.o
                                                  ./startup/startup_MIMXRT1062.o
USDHC1_IRQHandler                                 ./startup/startup_MIMXRT1062.o
USDHC2_DriverIRQHandler                           ./source/drivers/usdhc/bl_usdhc.o
                                                  ./startup/startup_MIMXRT1062.o
USDHC2_IRQHandler                                 ./startup/startup_MIMXRT1062.o
USDHC_AdjustDelayForManualTuning                  ./source/drivers/usdhc/bl_usdhc.o
                                                  ./source/drivers/sdmmc/bl_sdmmc.o
USDHC_Deinit                                      ./source/drivers/usdhc/bl_usdhc.o
                                                  ./source/drivers/sdmmc/bl_host.o
USDHC_EnableAutoTuningForCmdAndData               ./source/drivers/usdhc/bl_usdhc.o
USDHC_EnableManualTuning                          ./source/drivers/usdhc/bl_usdhc.o
USDHC_EnableStandardTuning                        ./source/drivers/usdhc/bl_usdhc.o
                                                  ./source/drivers/sdmmc/bl_sdmmc.o
                                                  ./source/drivers/sdmmc/bl_host.o
USDHC_GetCapability                               ./source/drivers/usdhc/bl_usdhc.o
                                                  ./source/drivers/sdmmc/bl_sd.o
                                                  ./source/drivers/sdmmc/bl_mmc.o
USDHC_Init                                        ./source/drivers/usdhc/bl_usdhc.o
                                                  ./source/drivers/sdmmc/bl_host.o
USDHC_Reset                                       ./source/drivers/usdhc/bl_usdhc.o
                                                  ./source/drivers/sdmmc/bl_sd.o
                                                  ./source/drivers/sdmmc/bl_mmc.o
                                                  ./source/drivers/sdmmc/bl_host.o
USDHC_SendCommand                                 ./source/drivers/usdhc/bl_usdhc.o
USDHC_SetAdmaTableConfig                          ./source/drivers/usdhc/bl_usdhc.o
USDHC_SetCardActive                               ./source/drivers/usdhc/bl_usdhc.o
                                                  ./source/drivers/sdmmc/bl_sd.o
USDHC_SetMmcBootConfig                            ./source/drivers/usdhc/bl_usdhc.o
USDHC_SetSdClock                                  ./source/drivers/usdhc/bl_usdhc.o
                                                  ./source/drivers/sdmmc/bl_sd.o
                                                  ./source/drivers/sdmmc/bl_mmc.o
USDHC_TransferBlocking                            ./source/drivers/usdhc/bl_usdhc.o
                                                  ./source/drivers/sdmmc/bl_host.o
USDHC_TransferCreateHandle                        ./source/drivers/usdhc/bl_usdhc.o
USDHC_TransferHandleIRQ                           ./source/drivers/usdhc/bl_usdhc.o
USDHC_TransferNonBlocking                         ./source/drivers/usdhc/bl_usdhc.o
UsageFault_Handler                                ./startup/startup_MIMXRT1062.o
WDOG1_IRQHandler                                  ./startup/startup_MIMXRT1062.o
WDOG2_IRQHandler                                  ./startup/startup_MIMXRT1062.o
WDOG_ClearInterruptStatus                         ./MIMXRT1062/bl_api.o
WDOG_Deinit                                       ./MIMXRT1062/bl_api.o
WDOG_GetDefaultConfig                             ./MIMXRT1062/bl_api.o
WDOG_GetStatusFlags                               ./MIMXRT1062/bl_api.o
WDOG_Init                                         ./MIMXRT1062/bl_api.o
WDOG_Refresh                                      ./MIMXRT1062/bl_api.o
XBAR1_IRQ_0_1_IRQHandler                          ./startup/startup_MIMXRT1062.o
XBAR1_IRQ_2_3_IRQHandler                          ./startup/startup_MIMXRT1062.o
__DATA_END                                        ./source/property/src/property_imx.o
                                                  ./startup/startup.o
__DATA_RAM                                        ./source/property/src/property_imx.o
                                                  ./startup/startup.o
__DATA_ROM                                        ./startup/startup.o
__END_BSS                                         ./startup/startup.o
__END_USBGLOBAL                                   ./startup/startup.o
__FLASH_BASE                                      ./MIMXRT1062/hardware_init_MIMXRT1062.o
__STACK_TOP                                       ./source/property/src/property_imx.o
__START_BSS                                       ./startup/startup.o
__START_USBGLOBAL                                 ./startup/startup.o
__StackTop                                        ./startup/startup_MIMXRT1062.o
                                                  ./startup/crt0_gcc.o
__Vectors                                         ./MIMXRT1062/hardware_init_MIMXRT1062.o
                                                  ./startup/startup.o
__aeabi_idiv0                                     c:/nxp/mcuxpressoide_11.2.0_4120/ide/plugins/com.nxp.mcuxpresso.tools.win32_11.2.0.202001021529/tools/bin/../lib/gcc/arm-none-eabi/9.2.1/thumb/v7e-m+dp/hard\libgcc.a(_dvmd_tls.o)
__aeabi_ldiv0                                     c:/nxp/mcuxpressoide_11.2.0_4120/ide/plugins/com.nxp.mcuxpresso.tools.win32_11.2.0.202001021529/tools/bin/../lib/gcc/arm-none-eabi/9.2.1/thumb/v7e-m+dp/hard\libgcc.a(_dvmd_tls.o)
                                                  c:/nxp/mcuxpressoide_11.2.0_4120/ide/plugins/com.nxp.mcuxpresso.tools.win32_11.2.0.202001021529/tools/bin/../lib/gcc/arm-none-eabi/9.2.1/thumb/v7e-m+dp/hard\libgcc.a(_aeabi_uldivmod.o)
                                                  c:/nxp/mcuxpressoide_11.2.0_4120/ide/plugins/com.nxp.mcuxpresso.tools.win32_11.2.0.202001021529/tools/bin/../lib/gcc/arm-none-eabi/9.2.1/thumb/v7e-m+dp/hard\libgcc.a(_aeabi_ldivmod.o)
__aeabi_ldivmod                                   c:/nxp/mcuxpressoide_11.2.0_4120/ide/plugins/com.nxp.mcuxpresso.tools.win32_11.2.0.202001021529/tools/bin/../lib/gcc/arm-none-eabi/9.2.1/thumb/v7e-m+dp/hard\libgcc.a(_aeabi_ldivmod.o)
                                                  ./drivers/fsl_lpspi.o
                                                  ./source/drivers/ocotp/bl_ocotp.o
__aeabi_uldivmod                                  c:/nxp/mcuxpressoide_11.2.0_4120/ide/plugins/com.nxp.mcuxpresso.tools.win32_11.2.0.202001021529/tools/bin/../lib/gcc/arm-none-eabi/9.2.1/thumb/v7e-m+dp/hard\libgcc.a(_aeabi_uldivmod.o)
                                                  ./drivers/fsl_lpspi.o
                                                  ./drivers/fsl_common.o
                                                  ./source/drivers/ocotp/bl_ocotp.o
__check_heap_overflow                             c:/nxp/mcuxpressoide_11.2.0_4120/ide/plugins/com.nxp.mcuxpresso.tools.win32_11.2.0.202001021529/tools/bin/../lib/gcc/arm-none-eabi/9.2.1/../../../../arm-none-eabi/lib/thumb/v7e-m+dp/hard\libcr_newlib_none.a(_cr_check_heap.o)
                                                  c:/nxp/mcuxpressoide_11.2.0_4120/ide/plugins/com.nxp.mcuxpresso.tools.win32_11.2.0.202001021529/tools/bin/../lib/gcc/arm-none-eabi/9.2.1/../../../../arm-none-eabi/lib/thumb/v7e-m+dp/hard\libcr_newlib_none.a(_cr_sbrk.o)
__data_end__                                      ./startup/startup_MIMXRT1062.o
__data_start__                                    ./startup/startup_MIMXRT1062.o
__end_of_heap                                     c:/nxp/mcuxpressoide_11.2.0_4120/ide/plugins/com.nxp.mcuxpresso.tools.win32_11.2.0.202001021529/tools/bin/../lib/gcc/arm-none-eabi/9.2.1/../../../../arm-none-eabi/lib/thumb/v7e-m+dp/hard\libcr_newlib_none.a(_cr_sbrk.o)
__errno                                           c:/nxp/mcuxpressoide_11.2.0_4120/ide/plugins/com.nxp.mcuxpresso.tools.win32_11.2.0.202001021529/tools/bin/../lib/gcc/arm-none-eabi/9.2.1/../../../../arm-none-eabi/lib/thumb/v7e-m+dp/hard\libc_nano.a(lib_a-errno.o)
                                                  c:/nxp/mcuxpressoide_11.2.0_4120/ide/plugins/com.nxp.mcuxpresso.tools.win32_11.2.0.202001021529/tools/bin/../lib/gcc/arm-none-eabi/9.2.1/../../../../arm-none-eabi/lib/thumb/v7e-m+dp/hard\libcr_newlib_none.a(_cr_sbrk.o)
__etext                                           ./startup/startup_MIMXRT1062.o
__isr_vector                                      ./startup/startup_MIMXRT1062.o
                                                  ./startup/crt0_gcc.o
__lock___arc4random_mutex                         c:/nxp/mcuxpressoide_11.2.0_4120/ide/plugins/com.nxp.mcuxpresso.tools.win32_11.2.0.202001021529/tools/bin/../lib/gcc/arm-none-eabi/9.2.1/../../../../arm-none-eabi/lib/thumb/v7e-m+dp/hard\libc_nano.a(lib_a-lock.o)
__lock___at_quick_exit_mutex                      c:/nxp/mcuxpressoide_11.2.0_4120/ide/plugins/com.nxp.mcuxpresso.tools.win32_11.2.0.202001021529/tools/bin/../lib/gcc/arm-none-eabi/9.2.1/../../../../arm-none-eabi/lib/thumb/v7e-m+dp/hard\libc_nano.a(lib_a-lock.o)
__lock___atexit_recursive_mutex                   c:/nxp/mcuxpressoide_11.2.0_4120/ide/plugins/com.nxp.mcuxpresso.tools.win32_11.2.0.202001021529/tools/bin/../lib/gcc/arm-none-eabi/9.2.1/../../../../arm-none-eabi/lib/thumb/v7e-m+dp/hard\libc_nano.a(lib_a-lock.o)
__lock___dd_hash_mutex                            c:/nxp/mcuxpressoide_11.2.0_4120/ide/plugins/com.nxp.mcuxpresso.tools.win32_11.2.0.202001021529/tools/bin/../lib/gcc/arm-none-eabi/9.2.1/../../../../arm-none-eabi/lib/thumb/v7e-m+dp/hard\libc_nano.a(lib_a-lock.o)
__lock___env_recursive_mutex                      c:/nxp/mcuxpressoide_11.2.0_4120/ide/plugins/com.nxp.mcuxpresso.tools.win32_11.2.0.202001021529/tools/bin/../lib/gcc/arm-none-eabi/9.2.1/../../../../arm-none-eabi/lib/thumb/v7e-m+dp/hard\libc_nano.a(lib_a-lock.o)
__lock___malloc_recursive_mutex                   c:/nxp/mcuxpressoide_11.2.0_4120/ide/plugins/com.nxp.mcuxpresso.tools.win32_11.2.0.202001021529/tools/bin/../lib/gcc/arm-none-eabi/9.2.1/../../../../arm-none-eabi/lib/thumb/v7e-m+dp/hard\libc_nano.a(lib_a-lock.o)
                                                  c:/nxp/mcuxpressoide_11.2.0_4120/ide/plugins/com.nxp.mcuxpresso.tools.win32_11.2.0.202001021529/tools/bin/../lib/gcc/arm-none-eabi/9.2.1/../../../../arm-none-eabi/lib/thumb/v7e-m+dp/hard\libc_nano.a(lib_a-mlock.o)
__lock___sfp_recursive_mutex                      c:/nxp/mcuxpressoide_11.2.0_4120/ide/plugins/com.nxp.mcuxpresso.tools.win32_11.2.0.202001021529/tools/bin/../lib/gcc/arm-none-eabi/9.2.1/../../../../arm-none-eabi/lib/thumb/v7e-m+dp/hard\libc_nano.a(lib_a-lock.o)
__lock___sinit_recursive_mutex                    c:/nxp/mcuxpressoide_11.2.0_4120/ide/plugins/com.nxp.mcuxpresso.tools.win32_11.2.0.202001021529/tools/bin/../lib/gcc/arm-none-eabi/9.2.1/../../../../arm-none-eabi/lib/thumb/v7e-m+dp/hard\libc_nano.a(lib_a-lock.o)
__lock___tz_mutex                                 c:/nxp/mcuxpressoide_11.2.0_4120/ide/plugins/com.nxp.mcuxpresso.tools.win32_11.2.0.202001021529/tools/bin/../lib/gcc/arm-none-eabi/9.2.1/../../../../arm-none-eabi/lib/thumb/v7e-m+dp/hard\libc_nano.a(lib_a-lock.o)
__malloc_free_list                                c:/nxp/mcuxpressoide_11.2.0_4120/ide/plugins/com.nxp.mcuxpresso.tools.win32_11.2.0.202001021529/tools/bin/../lib/gcc/arm-none-eabi/9.2.1/../../../../arm-none-eabi/lib/thumb/v7e-m+dp/hard\libc_nano.a(lib_a-nano-mallocr.o)
                                                  c:/nxp/mcuxpressoide_11.2.0_4120/ide/plugins/com.nxp.mcuxpresso.tools.win32_11.2.0.202001021529/tools/bin/../lib/gcc/arm-none-eabi/9.2.1/../../../../arm-none-eabi/lib/thumb/v7e-m+dp/hard\libc_nano.a(lib_a-nano-freer.o)
__malloc_lock                                     c:/nxp/mcuxpressoide_11.2.0_4120/ide/plugins/com.nxp.mcuxpresso.tools.win32_11.2.0.202001021529/tools/bin/../lib/gcc/arm-none-eabi/9.2.1/../../../../arm-none-eabi/lib/thumb/v7e-m+dp/hard\libc_nano.a(lib_a-mlock.o)
                                                  c:/nxp/mcuxpressoide_11.2.0_4120/ide/plugins/com.nxp.mcuxpresso.tools.win32_11.2.0.202001021529/tools/bin/../lib/gcc/arm-none-eabi/9.2.1/../../../../arm-none-eabi/lib/thumb/v7e-m+dp/hard\libc_nano.a(lib_a-nano-mallocr.o)
                                                  c:/nxp/mcuxpressoide_11.2.0_4120/ide/plugins/com.nxp.mcuxpresso.tools.win32_11.2.0.202001021529/tools/bin/../lib/gcc/arm-none-eabi/9.2.1/../../../../arm-none-eabi/lib/thumb/v7e-m+dp/hard\libc_nano.a(lib_a-nano-freer.o)
__malloc_sbrk_start                               c:/nxp/mcuxpressoide_11.2.0_4120/ide/plugins/com.nxp.mcuxpresso.tools.win32_11.2.0.202001021529/tools/bin/../lib/gcc/arm-none-eabi/9.2.1/../../../../arm-none-eabi/lib/thumb/v7e-m+dp/hard\libc_nano.a(lib_a-nano-mallocr.o)
__malloc_unlock                                   c:/nxp/mcuxpressoide_11.2.0_4120/ide/plugins/com.nxp.mcuxpresso.tools.win32_11.2.0.202001021529/tools/bin/../lib/gcc/arm-none-eabi/9.2.1/../../../../arm-none-eabi/lib/thumb/v7e-m+dp/hard\libc_nano.a(lib_a-mlock.o)
                                                  c:/nxp/mcuxpressoide_11.2.0_4120/ide/plugins/com.nxp.mcuxpresso.tools.win32_11.2.0.202001021529/tools/bin/../lib/gcc/arm-none-eabi/9.2.1/../../../../arm-none-eabi/lib/thumb/v7e-m+dp/hard\libc_nano.a(lib_a-nano-mallocr.o)
                                                  c:/nxp/mcuxpressoide_11.2.0_4120/ide/plugins/com.nxp.mcuxpresso.tools.win32_11.2.0.202001021529/tools/bin/../lib/gcc/arm-none-eabi/9.2.1/../../../../arm-none-eabi/lib/thumb/v7e-m+dp/hard\libc_nano.a(lib_a-nano-freer.o)
__retarget_lock_acquire                           c:/nxp/mcuxpressoide_11.2.0_4120/ide/plugins/com.nxp.mcuxpresso.tools.win32_11.2.0.202001021529/tools/bin/../lib/gcc/arm-none-eabi/9.2.1/../../../../arm-none-eabi/lib/thumb/v7e-m+dp/hard\libc_nano.a(lib_a-lock.o)
__retarget_lock_acquire_recursive                 c:/nxp/mcuxpressoide_11.2.0_4120/ide/plugins/com.nxp.mcuxpresso.tools.win32_11.2.0.202001021529/tools/bin/../lib/gcc/arm-none-eabi/9.2.1/../../../../arm-none-eabi/lib/thumb/v7e-m+dp/hard\libc_nano.a(lib_a-lock.o)
                                                  c:/nxp/mcuxpressoide_11.2.0_4120/ide/plugins/com.nxp.mcuxpresso.tools.win32_11.2.0.202001021529/tools/bin/../lib/gcc/arm-none-eabi/9.2.1/../../../../arm-none-eabi/lib/thumb/v7e-m+dp/hard\libc_nano.a(lib_a-mlock.o)
__retarget_lock_close                             c:/nxp/mcuxpressoide_11.2.0_4120/ide/plugins/com.nxp.mcuxpresso.tools.win32_11.2.0.202001021529/tools/bin/../lib/gcc/arm-none-eabi/9.2.1/../../../../arm-none-eabi/lib/thumb/v7e-m+dp/hard\libc_nano.a(lib_a-lock.o)
__retarget_lock_close_recursive                   c:/nxp/mcuxpressoide_11.2.0_4120/ide/plugins/com.nxp.mcuxpresso.tools.win32_11.2.0.202001021529/tools/bin/../lib/gcc/arm-none-eabi/9.2.1/../../../../arm-none-eabi/lib/thumb/v7e-m+dp/hard\libc_nano.a(lib_a-lock.o)
__retarget_lock_init                              c:/nxp/mcuxpressoide_11.2.0_4120/ide/plugins/com.nxp.mcuxpresso.tools.win32_11.2.0.202001021529/tools/bin/../lib/gcc/arm-none-eabi/9.2.1/../../../../arm-none-eabi/lib/thumb/v7e-m+dp/hard\libc_nano.a(lib_a-lock.o)
__retarget_lock_init_recursive                    c:/nxp/mcuxpressoide_11.2.0_4120/ide/plugins/com.nxp.mcuxpresso.tools.win32_11.2.0.202001021529/tools/bin/../lib/gcc/arm-none-eabi/9.2.1/../../../../arm-none-eabi/lib/thumb/v7e-m+dp/hard\libc_nano.a(lib_a-lock.o)
__retarget_lock_release                           c:/nxp/mcuxpressoide_11.2.0_4120/ide/plugins/com.nxp.mcuxpresso.tools.win32_11.2.0.202001021529/tools/bin/../lib/gcc/arm-none-eabi/9.2.1/../../../../arm-none-eabi/lib/thumb/v7e-m+dp/hard\libc_nano.a(lib_a-lock.o)
__retarget_lock_release_recursive                 c:/nxp/mcuxpressoide_11.2.0_4120/ide/plugins/com.nxp.mcuxpresso.tools.win32_11.2.0.202001021529/tools/bin/../lib/gcc/arm-none-eabi/9.2.1/../../../../arm-none-eabi/lib/thumb/v7e-m+dp/hard\libc_nano.a(lib_a-lock.o)
                                                  c:/nxp/mcuxpressoide_11.2.0_4120/ide/plugins/com.nxp.mcuxpresso.tools.win32_11.2.0.202001021529/tools/bin/../lib/gcc/arm-none-eabi/9.2.1/../../../../arm-none-eabi/lib/thumb/v7e-m+dp/hard\libc_nano.a(lib_a-mlock.o)
__retarget_lock_try_acquire                       c:/nxp/mcuxpressoide_11.2.0_4120/ide/plugins/com.nxp.mcuxpresso.tools.win32_11.2.0.202001021529/tools/bin/../lib/gcc/arm-none-eabi/9.2.1/../../../../arm-none-eabi/lib/thumb/v7e-m+dp/hard\libc_nano.a(lib_a-lock.o)
__retarget_lock_try_acquire_recursive             c:/nxp/mcuxpressoide_11.2.0_4120/ide/plugins/com.nxp.mcuxpresso.tools.win32_11.2.0.202001021529/tools/bin/../lib/gcc/arm-none-eabi/9.2.1/../../../../arm-none-eabi/lib/thumb/v7e-m+dp/hard\libc_nano.a(lib_a-lock.o)
__sf_fake_stderr                                  c:/nxp/mcuxpressoide_11.2.0_4120/ide/plugins/com.nxp.mcuxpresso.tools.win32_11.2.0.202001021529/tools/bin/../lib/gcc/arm-none-eabi/9.2.1/../../../../arm-none-eabi/lib/thumb/v7e-m+dp/hard\libc_nano.a(lib_a-impure.o)
__sf_fake_stdin                                   c:/nxp/mcuxpressoide_11.2.0_4120/ide/plugins/com.nxp.mcuxpresso.tools.win32_11.2.0.202001021529/tools/bin/../lib/gcc/arm-none-eabi/9.2.1/../../../../arm-none-eabi/lib/thumb/v7e-m+dp/hard\libc_nano.a(lib_a-impure.o)
__sf_fake_stdout                                  c:/nxp/mcuxpressoide_11.2.0_4120/ide/plugins/com.nxp.mcuxpresso.tools.win32_11.2.0.202001021529/tools/bin/../lib/gcc/arm-none-eabi/9.2.1/../../../../arm-none-eabi/lib/thumb/v7e-m+dp/hard\libc_nano.a(lib_a-impure.o)
__udivmoddi4                                      c:/nxp/mcuxpressoide_11.2.0_4120/ide/plugins/com.nxp.mcuxpresso.tools.win32_11.2.0.202001021529/tools/bin/../lib/gcc/arm-none-eabi/9.2.1/thumb/v7e-m+dp/hard\libgcc.a(_udivmoddi4.o)
                                                  c:/nxp/mcuxpressoide_11.2.0_4120/ide/plugins/com.nxp.mcuxpresso.tools.win32_11.2.0.202001021529/tools/bin/../lib/gcc/arm-none-eabi/9.2.1/thumb/v7e-m+dp/hard\libgcc.a(_aeabi_uldivmod.o)
                                                  c:/nxp/mcuxpressoide_11.2.0_4120/ide/plugins/com.nxp.mcuxpresso.tools.win32_11.2.0.202001021529/tools/bin/../lib/gcc/arm-none-eabi/9.2.1/thumb/v7e-m+dp/hard\libgcc.a(_aeabi_ldivmod.o)
_free_r                                           c:/nxp/mcuxpressoide_11.2.0_4120/ide/plugins/com.nxp.mcuxpresso.tools.win32_11.2.0.202001021529/tools/bin/../lib/gcc/arm-none-eabi/9.2.1/../../../../arm-none-eabi/lib/thumb/v7e-m+dp/hard\libc_nano.a(lib_a-nano-freer.o)
                                                  c:/nxp/mcuxpressoide_11.2.0_4120/ide/plugins/com.nxp.mcuxpresso.tools.win32_11.2.0.202001021529/tools/bin/../lib/gcc/arm-none-eabi/9.2.1/../../../../arm-none-eabi/lib/thumb/v7e-m+dp/hard\libc_nano.a(lib_a-reent.o)
                                                  c:/nxp/mcuxpressoide_11.2.0_4120/ide/plugins/com.nxp.mcuxpresso.tools.win32_11.2.0.202001021529/tools/bin/../lib/gcc/arm-none-eabi/9.2.1/../../../../arm-none-eabi/lib/thumb/v7e-m+dp/hard\libc_nano.a(lib_a-malloc.o)
_global_impure_ptr                                c:/nxp/mcuxpressoide_11.2.0_4120/ide/plugins/com.nxp.mcuxpresso.tools.win32_11.2.0.202001021529/tools/bin/../lib/gcc/arm-none-eabi/9.2.1/../../../../arm-none-eabi/lib/thumb/v7e-m+dp/hard\libc_nano.a(lib_a-impure.o)
_impure_ptr                                       c:/nxp/mcuxpressoide_11.2.0_4120/ide/plugins/com.nxp.mcuxpresso.tools.win32_11.2.0.202001021529/tools/bin/../lib/gcc/arm-none-eabi/9.2.1/../../../../arm-none-eabi/lib/thumb/v7e-m+dp/hard\libc_nano.a(lib_a-impure.o)
                                                  c:/nxp/mcuxpressoide_11.2.0_4120/ide/plugins/com.nxp.mcuxpresso.tools.win32_11.2.0.202001021529/tools/bin/../lib/gcc/arm-none-eabi/9.2.1/../../../../arm-none-eabi/lib/thumb/v7e-m+dp/hard\libc_nano.a(lib_a-errno.o)
                                                  c:/nxp/mcuxpressoide_11.2.0_4120/ide/plugins/com.nxp.mcuxpresso.tools.win32_11.2.0.202001021529/tools/bin/../lib/gcc/arm-none-eabi/9.2.1/../../../../arm-none-eabi/lib/thumb/v7e-m+dp/hard\libc_nano.a(lib_a-reent.o)
                                                  c:/nxp/mcuxpressoide_11.2.0_4120/ide/plugins/com.nxp.mcuxpresso.tools.win32_11.2.0.202001021529/tools/bin/../lib/gcc/arm-none-eabi/9.2.1/../../../../arm-none-eabi/lib/thumb/v7e-m+dp/hard\libc_nano.a(lib_a-malloc.o)
_malloc_r                                         c:/nxp/mcuxpressoide_11.2.0_4120/ide/plugins/com.nxp.mcuxpresso.tools.win32_11.2.0.202001021529/tools/bin/../lib/gcc/arm-none-eabi/9.2.1/../../../../arm-none-eabi/lib/thumb/v7e-m+dp/hard\libc_nano.a(lib_a-nano-mallocr.o)
                                                  c:/nxp/mcuxpressoide_11.2.0_4120/ide/plugins/com.nxp.mcuxpresso.tools.win32_11.2.0.202001021529/tools/bin/../lib/gcc/arm-none-eabi/9.2.1/../../../../arm-none-eabi/lib/thumb/v7e-m+dp/hard\libc_nano.a(lib_a-malloc.o)
_pvHeapLimit                                      c:/nxp/mcuxpressoide_11.2.0_4120/ide/plugins/com.nxp.mcuxpresso.tools.win32_11.2.0.202001021529/tools/bin/../lib/gcc/arm-none-eabi/9.2.1/../../../../arm-none-eabi/lib/thumb/v7e-m+dp/hard\libcr_newlib_none.a(_cr_check_heap.o)
_pvHeapStart                                      c:/nxp/mcuxpressoide_11.2.0_4120/ide/plugins/com.nxp.mcuxpresso.tools.win32_11.2.0.202001021529/tools/bin/../lib/gcc/arm-none-eabi/9.2.1/../../../../arm-none-eabi/lib/thumb/v7e-m+dp/hard\libcr_newlib_none.a(_cr_sbrk.o)
_reclaim_reent                                    c:/nxp/mcuxpressoide_11.2.0_4120/ide/plugins/com.nxp.mcuxpresso.tools.win32_11.2.0.202001021529/tools/bin/../lib/gcc/arm-none-eabi/9.2.1/../../../../arm-none-eabi/lib/thumb/v7e-m+dp/hard\libc_nano.a(lib_a-reent.o)
_sbrk                                             c:/nxp/mcuxpressoide_11.2.0_4120/ide/plugins/com.nxp.mcuxpresso.tools.win32_11.2.0.202001021529/tools/bin/../lib/gcc/arm-none-eabi/9.2.1/../../../../arm-none-eabi/lib/thumb/v7e-m+dp/hard\libcr_newlib_none.a(_cr_sbrk.o)
                                                  c:/nxp/mcuxpressoide_11.2.0_4120/ide/plugins/com.nxp.mcuxpresso.tools.win32_11.2.0.202001021529/tools/bin/../lib/gcc/arm-none-eabi/9.2.1/../../../../arm-none-eabi/lib/thumb/v7e-m+dp/hard\libc_nano.a(lib_a-sbrkr.o)
_sbrk_r                                           c:/nxp/mcuxpressoide_11.2.0_4120/ide/plugins/com.nxp.mcuxpresso.tools.win32_11.2.0.202001021529/tools/bin/../lib/gcc/arm-none-eabi/9.2.1/../../../../arm-none-eabi/lib/thumb/v7e-m+dp/hard\libc_nano.a(lib_a-sbrkr.o)
                                                  c:/nxp/mcuxpressoide_11.2.0_4120/ide/plugins/com.nxp.mcuxpresso.tools.win32_11.2.0.202001021529/tools/bin/../lib/gcc/arm-none-eabi/9.2.1/../../../../arm-none-eabi/lib/thumb/v7e-m+dp/hard\libc_nano.a(lib_a-nano-mallocr.o)
api_update_swap_meta                              ./MIMXRT1062/hardware_init_MIMXRT1062.o
app_api_update_boot_meta                          ./MIMXRT1062/hardware_init_MIMXRT1062.o
app_api_update_swap_meta                          ./MIMXRT1062/hardware_init_MIMXRT1062.o
autobaud_deinit                                   ./source/autobaud/autobaud_irq.o
                                                  ./source/bootloader/src/lpuart_peripheral_interface.o
autobaud_get_rate                                 ./source/autobaud/autobaud_irq.o
                                                  ./source/bootloader/src/lpuart_peripheral_interface.o
autobaud_init                                     ./source/autobaud/autobaud_irq.o
                                                  ./source/bootloader/src/lpuart_peripheral_interface.o
bl_nor_encrypt_data                               ./source/bootloader/src/bl_nor_encrypt_bee.o
bl_nor_encrypt_get_config_block                   ./source/bootloader/src/bl_nor_encrypt_bee.o
bl_nor_encrypt_has_encrypted_region               ./source/bootloader/src/bl_nor_encrypt_bee.o
bl_nor_encrypt_init                               ./source/bootloader/src/bl_nor_encrypt_bee.o
bl_nor_encrypt_region_info_valid                  ./source/bootloader/src/bl_nor_encrypt_bee.o
bl_nor_encrypt_region_refresh                     ./source/bootloader/src/bl_nor_encrypt_bee.o
bl_nor_in_encrypted_region                        ./source/bootloader/src/bl_nor_encrypt_bee.o
boot_data                                         ./MIMXRT1062/hardware_init_MIMXRT1062.o
boot_go                                           ./source/bootloader/src/bl_reliable_update_common.o
boot_image_check                                  ./source/bootloader/src/bl_reliable_update_common.o
                                                  ./MIMXRT1062/hardware_init_MIMXRT1062.o
boot_meta_check                                   ./source/bootloader/src/bl_reliable_update_common.o
                                                  ./MIMXRT1062/hardware_init_MIMXRT1062.o
bootloaderCopyright                               ./source/bootloader/src/bl_tree_root.o
bootloader_command_init                           ./source/bootloader/src/bl_command.o
bootloader_command_pump                           ./source/bootloader/src/bl_command.o
bootloader_get_external_memory_properties         ./source/property/src/property_imx.o
bootloader_property_get                           ./source/property/src/property_imx.o
bootloader_property_init                          ./source/property/src/property_imx.o
bootloader_property_load_user_config              ./source/property/src/property_imx.o
bootloader_property_set_uint32                    ./source/property/src/property_imx.o
bootloader_reliable_update_as_requested           ./source/bootloader/src/bl_reliable_update_common.o
                                                  ./source/bootloader/src/bl_main.o
                                                  ./source/bootloader/src/bl_command.o
bootloader_user_entry                             ./source/bootloader/src/bl_user_entry.o
                                                  ./source/bootloader/src/bl_tree_root.o
calculate_application_crc32                       ./source/bootloader/src/bl_app_crc_check.o
cleanup_glue                                      c:/nxp/mcuxpressoide_11.2.0_4120/ide/plugins/com.nxp.mcuxpresso.tools.win32_11.2.0.202001021529/tools/bin/../lib/gcc/arm-none-eabi/9.2.1/../../../../arm-none-eabi/lib/thumb/v7e-m+dp/hard\libc_nano.a(lib_a-reent.o)
clock_setup                                       ./MIMXRT1062/bl_clock_config_MIMXRT1062.o
configure_clocks                                  ./MIMXRT1062/bl_clock_config_MIMXRT1062.o
                                                  ./source/bootloader/src/bl_shutdown_cleanup.o
                                                  ./source/bootloader/src/bl_main.o
crc16_finalize                                    ./source/crc/crc16.o
                                                  ./source/packet/src/serial_packet.o
crc16_init                                        ./source/crc/crc16.o
                                                  ./source/packet/src/serial_packet.o
crc16_onfi_init                                   ./source/crc/crc16.o
crc16_onfi_update                                 ./source/crc/crc16.o
crc16_update                                      ./source/crc/crc16.o
                                                  ./source/packet/src/serial_packet.o
crc32_finalize                                    ./source/crc/crc32.o
                                                  ./source/bootloader/src/bl_reliable_update_common.o
                                                  ./source/bootloader/src/bl_app_crc_check.o
                                                  ./source/sbloader/src/sbloader.o
crc32_init                                        ./source/crc/crc32.o
                                                  ./source/bootloader/src/bl_reliable_update_common.o
                                                  ./source/bootloader/src/bl_app_crc_check.o
                                                  ./source/sbloader/src/sbloader.o
crc32_update                                      ./source/crc/crc32.o
                                                  ./source/bootloader/src/bl_reliable_update_common.o
                                                  ./source/bootloader/src/bl_app_crc_check.o
                                                  ./source/sbloader/src/sbloader.o
dcp_aes_cbc_crypt                                 ./source/drivers/dcp/bl_dcp.o
                                                  ./source/bootloader/src/bl_nor_encrypt_bee.o
dcp_aes_ccm_auth_decrypt                          ./source/drivers/dcp/bl_dcp.o
dcp_aes_ccm_encrypt_and_mac                       ./source/drivers/dcp/bl_dcp.o
                                                  ./source/bootloader/src/bl_keyblob_dcp.o
dcp_aes_ctr_crypt                                 ./source/drivers/dcp/bl_dcp.o
                                                  ./source/bootloader/src/bl_nor_encrypt_bee.o
dcp_aes_ecb_crypt                                 ./source/drivers/dcp/bl_dcp.o
                                                  ./source/bootloader/src/bl_nor_encrypt_bee.o
                                                  ./source/bootloader/src/bl_keyblob_dcp.o
dcp_aes_exit                                      ./source/drivers/dcp/bl_dcp.o
dcp_aes_init                                      ./source/drivers/dcp/bl_dcp.o
                                                  ./source/bootloader/src/bl_nor_encrypt_bee.o
                                                  ./source/bootloader/src/bl_keyblob_dcp.o
dcp_aes_restore                                   ./source/drivers/dcp/bl_dcp.o
dcp_aes_set_key                                   ./source/drivers/dcp/bl_dcp.o
                                                  ./source/bootloader/src/bl_nor_encrypt_bee.o
                                                  ./source/bootloader/src/bl_keyblob_dcp.o
dcp_entry                                         ./source/drivers/dcp/bl_dcp.o
dcp_exit                                          ./source/drivers/dcp/bl_dcp.o
debug_init                                        ./MIMXRT1062/hardware_init_MIMXRT1062.o
deinit_hardware                                   ./MIMXRT1062/hardware_init_MIMXRT1062.o
                                                  ./source/bootloader/src/bl_shutdown_cleanup.o
disable_autobaud_pin_irq                          ./MIMXRT1062/pinmux_utility_imxrt_series.o
                                                  ./source/autobaud/autobaud_irq.o
do_swap_if_needed                                 ./source/bootloader/src/bl_reliable_update_common.o
dummy_byte_callback                               ./MIMXRT1062/hardware_init_MIMXRT1062.o
enable_autobaud_pin_irq                           ./MIMXRT1062/pinmux_utility_imxrt_series.o
                                                  ./source/autobaud/autobaud_irq.o
errno                                             c:/nxp/mcuxpressoide_11.2.0_4120/ide/plugins/com.nxp.mcuxpresso.tools.win32_11.2.0.202001021529/tools/bin/../lib/gcc/arm-none-eabi/9.2.1/../../../../arm-none-eabi/lib/thumb/v7e-m+dp/hard\libc_nano.a(lib_a-reent.o)
                                                  c:/nxp/mcuxpressoide_11.2.0_4120/ide/plugins/com.nxp.mcuxpresso.tools.win32_11.2.0.202001021529/tools/bin/../lib/gcc/arm-none-eabi/9.2.1/../../../../arm-none-eabi/lib/thumb/v7e-m+dp/hard\libc_nano.a(lib_a-sbrkr.o)
exit                                              ./source/bootloader/src/bl_main.o
finalize_data_phase                               ./source/bootloader/src/bl_command.o
find_external_map_entry                           ./source/memory/src/memory.o
find_external_map_index                           ./source/memory/src/memory.o
                                                  ./source/bootloader/src/bl_command.o
                                                  ./source/sbloader/src/sbloader.o
find_map_entry                                    ./source/memory/src/memory.o
                                                  ./source/bootloader/src/bl_main.o
flash_copy                                        ./source/bootloader/src/bl_reliable_update_common.o
flash_read                                        ./source/bootloader/src/bl_reliable_update_common.o
flexspi_clear_cache                               ./MIMXRT1062/bl_api.o
                                                  ./source/drivers/flexspi_nand/flexspi_nand_flash.o
                                                  ./source/drivers/flexspi_nor/flexspi_nor_flash.o
                                                  ./source/memory/src/flexspi_nor_memory.o
flexspi_clear_sequence_pointer                    ./source/drivers/flexspi/bl_flexspi.o
flexspi_clock_config                              ./MIMXRT1062/bl_clock_config_MIMXRT1062.o
                                                  ./source/drivers/flexspi/bl_flexspi.o
                                                  ./source/drivers/flexspi_nor/flexspi_nor_flash.o
flexspi_clock_gate_disable                        ./MIMXRT1062/bl_clock_config_MIMXRT1062.o
                                                  ./source/drivers/flexspi/bl_flexspi.o
flexspi_clock_gate_enable                         ./MIMXRT1062/bl_clock_config_MIMXRT1062.o
                                                  ./source/drivers/flexspi/bl_flexspi.o
flexspi_command_xfer                              ./MIMXRT1062/bl_api.o
                                                  ./source/drivers/flexspi/bl_flexspi.o
                                                  ./source/drivers/flexspi_nand/flexspi_nand_flash.o
                                                  ./source/drivers/flexspi_nor/flexspi_nor_flash.o
flexspi_config_ahb_buffers                        ./source/drivers/flexspi/bl_flexspi.o
flexspi_config_flash_control_registers            ./source/drivers/flexspi/bl_flexspi.o
flexspi_config_mcr1                               ./source/drivers/flexspi/bl_flexspi.o
flexspi_configure_dll                             ./source/drivers/flexspi/bl_flexspi.o
                                                  ./source/drivers/flexspi_nor/flexspi_nor_flash.o
flexspi_device_wait_busy                          ./source/drivers/flexspi/bl_flexspi.o
                                                  ./source/drivers/flexspi_nand/flexspi_nand_flash.o
                                                  ./source/drivers/flexspi_nor/flexspi_nor_flash.o
flexspi_device_write_enable                       ./source/drivers/flexspi/bl_flexspi.o
                                                  ./source/drivers/flexspi_nand/flexspi_nand_flash.o
                                                  ./source/drivers/flexspi_nor/flexspi_nor_flash.o
flexspi_get_clock                                 ./MIMXRT1062/bl_clock_config_MIMXRT1062.o
                                                  ./source/drivers/flexspi/bl_flexspi.o
                                                  ./source/drivers/flexspi_nor/flexspi_nor_flash.o
flexspi_get_max_supported_freq                    ./MIMXRT1062/bl_clock_config_MIMXRT1062.o
                                                  ./source/drivers/flexspi/bl_flexspi.o
flexspi_get_ticks                                 ./source/drivers/flexspi/bl_flexspi.o
flexspi_half_clock_control                        ./source/drivers/flexspi/bl_flexspi.o
                                                  ./source/drivers/flexspi_nor/flexspi_nor_flash.o
flexspi_init                                      ./source/drivers/flexspi/bl_flexspi.o
                                                  ./source/drivers/flexspi_nand/flexspi_nand_flash.o
flexspi_iomux_config                              ./MIMXRT1062/hardware_init_MIMXRT1062.o
                                                  ./source/drivers/flexspi/bl_flexspi.o
flexspi_is_ck2_enabled                            ./source/drivers/flexspi/bl_flexspi.o
flexspi_is_ddr_mode_enable                        ./source/drivers/flexspi/bl_flexspi.o
flexspi_is_differential_clock_enable              ./source/drivers/flexspi/bl_flexspi.o
                                                  ./MIMXRT1062/hardware_init_MIMXRT1062.o
flexspi_is_padsetting_override_enable             ./source/drivers/flexspi/bl_flexspi.o
flexspi_is_parallel_mode                          ./source/drivers/flexspi/bl_flexspi.o
                                                  ./source/drivers/flexspi_nor/flexspi_nor_flash.o
                                                  ./source/memory/src/flexspi_nor_memory.o
flexspi_is_word_addressable                       ./source/drivers/flexspi/bl_flexspi.o
flexspi_nand_erase                                ./source/drivers/flexspi_nand/flexspi_nand_flash.o
flexspi_nand_erase_block                          ./source/drivers/flexspi_nand/flexspi_nand_flash.o
flexspi_nand_get_config                           ./source/drivers/flexspi_nand/flexspi_nand_flash.o
flexspi_nand_get_default_cfg_blk                  ./MIMXRT1062/flexspi_nand_config_MIMXRT1062.o
flexspi_nand_get_fcb_search_cfg                   ./MIMXRT1062/flexspi_nand_config_MIMXRT1062.o
flexspi_nand_init                                 ./source/drivers/flexspi_nand/flexspi_nand_flash.o
flexspi_nand_program_page                         ./source/drivers/flexspi_nand/flexspi_nand_flash.o
flexspi_nand_read_page                            ./source/drivers/flexspi_nand/flexspi_nand_flash.o
flexspi_nor_flash_erase                           ./MIMXRT1062/bl_api.o
                                                  ./MIMXRT1062/hardware_init_MIMXRT1062.o
                                                  ./source/memory/src/flexspi_nor_memory.o
flexspi_nor_flash_erase_all                       ./MIMXRT1062/bl_api.o
flexspi_nor_flash_erase_block                     ./source/drivers/flexspi_nor/flexspi_nor_flash.o
flexspi_nor_flash_erase_sector                    ./source/drivers/flexspi_nor/flexspi_nor_flash.o
flexspi_nor_flash_init                            ./MIMXRT1062/bl_api.o
                                                  ./MIMXRT1062/hardware_init_MIMXRT1062.o
                                                  ./source/drivers/flexspi_nor/flexspi_nor_flash.o
                                                  ./source/memory/src/flexspi_nor_memory.o
flexspi_nor_flash_page_program                    ./MIMXRT1062/bl_api.o
                                                  ./MIMXRT1062/hardware_init_MIMXRT1062.o
                                                  ./source/memory/src/flexspi_nor_memory.o
flexspi_nor_flash_read                            ./MIMXRT1062/bl_api.o
                                                  ./source/memory/src/flexspi_nor_memory.o
flexspi_nor_get_config                            ./MIMXRT1062/bl_api.o
                                                  ./source/memory/src/flexspi_nor_memory.o
flexspi_nor_get_default_cfg_blk                   ./MIMXRT1062/flexspi_nor_config_MIMXRT1062.o
flexspi_nor_get_property                          ./source/memory/src/flexspi_nor_memory.o
                                                  ./MIMXRT1062/external_memory_property_map_MIMXRT1062.o
flexspi_nor_mem_config                            ./source/memory/src/flexspi_nor_memory.o
                                                  ./source/bootloader/src/bl_command.o
                                                  ./source/sbloader/src/sbloader.o
flexspi_nor_mem_erase                             ./source/memory/src/flexspi_nor_memory.o
flexspi_nor_mem_erase_all                         ./source/memory/src/flexspi_nor_memory.o
                                                  ./source/bootloader/src/bl_command.o
                                                  ./source/sbloader/src/sbloader.o
flexspi_nor_mem_fill                              ./source/memory/src/flexspi_nor_memory.o
flexspi_nor_mem_flush                             ./source/memory/src/flexspi_nor_memory.o
flexspi_nor_mem_init                              ./source/memory/src/flexspi_nor_memory.o
flexspi_nor_mem_read                              ./source/memory/src/flexspi_nor_memory.o
flexspi_nor_mem_write                             ./source/memory/src/flexspi_nor_memory.o
flexspi_nor_read_persistent                       ./MIMXRT1062/hardware_init_MIMXRT1062.o
flexspi_nor_restore_spi_protocol                  ./source/drivers/flexspi_nor/flexspi_nor_flash.o
flexspi_nor_write_persistent                      ./MIMXRT1062/hardware_init_MIMXRT1062.o
flexspi_set_failsafe_setting                      ./MIMXRT1062/hardware_init_MIMXRT1062.o
                                                  ./source/drivers/flexspi_nand/flexspi_nand_flash.o
flexspi_sw_delay_us                               ./MIMXRT1062/bl_clock_config_MIMXRT1062.o
                                                  ./source/drivers/flexspi/bl_flexspi.o
                                                  ./source/drivers/flexspi_nand/flexspi_nand_flash.o
flexspi_update_lut                                ./MIMXRT1062/bl_api.o
                                                  ./source/drivers/flexspi/bl_flexspi.o
                                                  ./source/drivers/flexspi_nand/flexspi_nand_flash.o
                                                  ./source/drivers/flexspi_nor/flexspi_nor_flash.o
flexspi_update_padsetting                         ./MIMXRT1062/hardware_init_MIMXRT1062.o
                                                  ./MIMXRT1062/bl_api.o
flexspi_wait_idle                                 ./source/drivers/flexspi/bl_flexspi.o
                                                  ./source/drivers/flexspi_nor/flexspi_nor_flash.o
free                                              c:/nxp/mcuxpressoide_11.2.0_4120/ide/plugins/com.nxp.mcuxpresso.tools.win32_11.2.0.202001021529/tools/bin/../lib/gcc/arm-none-eabi/9.2.1/../../../../arm-none-eabi/lib/thumb/v7e-m+dp/hard\libc_nano.a(lib_a-malloc.o)
                                                  ./component/osa/fsl_os_abstraction_bm.o
                                                  ./drivers/fsl_common.o
fsl_assert                                        ./source/utilities/src/fsl_assert.o
gUseRtos_c                                        ./component/osa/fsl_os_abstraction_bm.o
g_aesInterface                                    ./source/bootloader/src/bl_tree_root.o
g_bootloaderContext                               ./source/bootloader/src/bl_context.o
                                                  ./source/bootloader/src/usb_hid_msc_peripheral_interface.o
                                                  ./source/bootloader/src/bl_tree_root.o
                                                  ./source/bootloader/src/bl_reliable_update_common.o
                                                  ./source/bootloader/src/bl_main.o
                                                  ./source/bootloader/src/bl_command.o
                                                  ./source/bootloader/src/bl_app_crc_check.o
                                                  ./source/memory/src/memory.o
                                                  ./source/memory/src/flexspi_nor_memory.o
                                                  ./source/packet/src/serial_packet.o
                                                  ./source/property/src/property_imx.o
                                                  ./source/sbloader/src/sbloader.o
g_bootloaderTree                                  ./source/bootloader/src/bl_tree_root.o
g_commandData                                     ./source/bootloader/src/bl_command.o
g_commandHandlerTable                             ./source/bootloader/src/bl_command.o
g_commandInterface                                ./source/bootloader/src/bl_command.o
                                                  ./source/bootloader/src/bl_context.o
g_composite_device                                ./source/usb/bm_composite/composite.o
g_composite_device_config_list                    ./source/usb/bm_composite/composite.o
                                                  ./source/bootloader/src/usb_hid_msc_peripheral_interface.o
g_config_descriptor                               ./source/usb/bm_composite/usb_descriptor.o
g_device_descriptor                               ./source/usb/bm_composite/usb_descriptor.o
                                                  ./source/bootloader/src/usb_hid_msc_peripheral_interface.o
g_externalMemPropertyInterfaceMap                 ./MIMXRT1062/external_memory_property_map_MIMXRT1062.o
                                                  ./source/property/src/property_imx.o
g_externalMemoryMap                               ./MIMXRT1062/memory_map_MIMXRT1062.o
                                                  ./source/bootloader/src/bl_context.o
g_flexspiMemoryInterface                          ./source/memory/src/flexspi_nor_memory.o
                                                  ./MIMXRT1062/memory_map_MIMXRT1062.o
g_framingPacketInterface                          ./source/packet/src/serial_packet.o
g_hid_generic_class                               ./source/usb/bm_composite/usb_descriptor.o
                                                  ./source/usb/bm_composite/composite.o
g_hid_generic_endpoints                           ./source/usb/bm_composite/usb_descriptor.o
g_hid_generic_interface                           ./source/usb/bm_composite/usb_descriptor.o
g_hid_generic_interface_list                      ./source/usb/bm_composite/usb_descriptor.o
g_hid_generic_interfaces                          ./source/usb/bm_composite/usb_descriptor.o
g_hid_generic_report_descriptor                   ./source/usb/bm_composite/usb_descriptor.o
g_language_list                                   ./source/usb/bm_composite/usb_descriptor.o
                                                  ./source/bootloader/src/usb_hid_msc_peripheral_interface.o
g_language_ptr                                    ./source/usb/bm_composite/usb_descriptor.o
                                                  ./source/bootloader/src/usb_hid_msc_peripheral_interface.o
g_lpspiDummyData                                  ./drivers/fsl_lpspi.o
g_lpuartByteInterface                             ./source/bootloader/src/lpuart_peripheral_interface.o
g_lpuartControlInterface                          ./source/bootloader/src/lpuart_peripheral_interface.o
g_memoryInterface                                 ./source/memory/src/memory.o
                                                  ./source/bootloader/src/bl_context.o
g_memoryMap                                       ./MIMXRT1062/memory_map_MIMXRT1062.o
                                                  ./MIMXRT1062/hardware_init_MIMXRT1062.o
                                                  ./source/bootloader/src/bl_context.o
                                                  ./source/memory/src/flexspi_nor_memory.o
g_msc_class                                       ./source/usb/bm_composite/usb_descriptor.o
g_msc_disk_endpoints                              ./source/usb/bm_composite/usb_descriptor.o
g_msc_disk_interface                              ./source/usb/bm_composite/usb_descriptor.o
g_msc_disk_interface_list                         ./source/usb/bm_composite/usb_descriptor.o
g_msc_disk_interfaces                             ./source/usb/bm_composite/usb_descriptor.o
g_normalDTCMInterface                             ./source/memory/src/normal_memory.o
g_normalMemoryInterface                           ./source/memory/src/normal_memory.o
                                                  ./MIMXRT1062/memory_map_MIMXRT1062.o
g_normalOCRAMInterface                            ./source/memory/src/normal_memory.o
g_peripherals                                     ./MIMXRT1062/bl_peripherals_MIMXRT1062.o
                                                  ./source/bootloader/src/bl_shutdown_cleanup.o
                                                  ./source/bootloader/src/bl_main.o
                                                  ./source/bootloader/src/bl_context.o
g_propertyInterface                               ./source/property/src/property_imx.o
                                                  ./source/bootloader/src/bl_context.o
g_propertyStore                                   ./source/property/src/property_imx.o
g_reliableUpdateAPI                               ./MIMXRT1062/hardware_init_MIMXRT1062.o
                                                  ./startup/startup_MIMXRT1062.o
g_rtcXtalFreq                                     ./drivers/fsl_clock.o
g_sdmmc                                           ./source/drivers/sdmmc/bl_sdmmc.o
                                                  ./source/drivers/sdmmc/bl_sd.o
                                                  ./source/drivers/sdmmc/bl_mmc.o
g_string_desc_size                                ./source/usb/bm_composite/usb_descriptor.o
g_string_descriptors                              ./source/usb/bm_composite/usb_descriptor.o
g_usbHidControlInterface                          ./source/bootloader/src/usb_hid_msc_peripheral_interface.o
                                                  ./MIMXRT1062/bl_peripherals_MIMXRT1062.o
g_usbHidPacketInterface                           ./source/bootloader/src/usb_hid_msc_peripheral_interface.o
                                                  ./MIMXRT1062/bl_peripherals_MIMXRT1062.o
g_usb_lang                                        ./source/usb/bm_composite/usb_descriptor.o
g_usb_str_0                                       ./source/usb/bm_composite/usb_descriptor.o
g_usb_str_1                                       ./source/usb/bm_composite/usb_descriptor.o
g_usb_str_2                                       ./source/usb/bm_composite/usb_descriptor.o
g_usb_str_3                                       ./source/usb/bm_composite/usb_descriptor.o
g_usb_str_n                                       ./source/usb/bm_composite/usb_descriptor.o
g_usdhcAdma2Table                                 ./source/drivers/sdmmc/bl_host.o
g_xtalFreq                                        ./drivers/fsl_clock.o
                                                  ./MIMXRT1062/bl_clock_config_MIMXRT1062.o
generate_key_blob                                 ./source/bootloader/src/bl_keyblob_dcp.o
                                                  ./source/bootloader/src/bl_keyblob.o
                                                  ./source/bootloader/src/bl_command.o
get_active_partition                              ./source/bootloader/src/bl_reliable_update_common.o
get_bus_clock                                     ./MIMXRT1062/bl_clock_config_MIMXRT1062.o
                                                  ./source/drivers/microseconds/microseconds_pit.o
get_flexspinor_amba_base                          ./MIMXRT1062/hardware_init_MIMXRT1062.o
                                                  ./source/memory/src/flexspi_nor_memory.o
get_flexspinor_instance                           ./MIMXRT1062/hardware_init_MIMXRT1062.o
                                                  ./source/memory/src/flexspi_nor_memory.o
get_hab_status                                    ./MIMXRT1062/hardware_init_MIMXRT1062.o
                                                  ./source/property/src/property_imx.o
get_image_header                                  ./source/bootloader/src/bl_reliable_update_common.o
                                                  ./MIMXRT1062/hardware_init_MIMXRT1062.o
get_image_state                                   ./MIMXRT1062/hardware_init_MIMXRT1062.o
get_ocotp_clock                                   ./MIMXRT1062/bl_clock_config_MIMXRT1062.o
                                                  ./source/drivers/ocotp/bl_ocotp.o
get_page_sector_block_size_from_sfdp              ./source/drivers/flexspi_nor/flexspi_nor_flash.o
get_partition_info                                ./source/bootloader/src/bl_reliable_update_common.o
get_primary_boot_device                           ./MIMXRT1062/hardware_init_MIMXRT1062.o
                                                  ./MIMXRT1062/flexspi_nor_config_MIMXRT1062.o
                                                  ./MIMXRT1062/flexspi_nand_config_MIMXRT1062.o
get_uart_clock                                    ./MIMXRT1062/hardware_init_MIMXRT1062.o
                                                  ./source/bootloader/src/lpuart_peripheral_interface.o
get_update_partition                              ./source/bootloader/src/bl_reliable_update_common.o
get_update_partition_info                         ./MIMXRT1062/hardware_init_MIMXRT1062.o
handle_call                                       ./source/bootloader/src/bl_command.o
handle_configure_memory                           ./source/bootloader/src/bl_command.o
handle_data_bidirection                           ./source/bootloader/src/bl_command.o
handle_data_consumer                              ./source/bootloader/src/bl_command.o
handle_data_producer                              ./source/bootloader/src/bl_command.o
handle_execute                                    ./source/bootloader/src/bl_command.o
handle_fill_memory                                ./source/bootloader/src/bl_command.o
handle_flash_erase_all                            ./source/bootloader/src/bl_command.o
handle_flash_erase_all_unsecure                   ./source/bootloader/src/bl_command.o
handle_flash_erase_region                         ./source/bootloader/src/bl_command.o
handle_flash_program_once                         ./source/bootloader/src/bl_command.o
handle_flash_read_once                            ./source/bootloader/src/bl_command.o
handle_flash_read_resource                        ./source/bootloader/src/bl_command.o
handle_generate_key_blob                          ./source/bootloader/src/bl_command.o
handle_get_property                               ./source/bootloader/src/bl_command.o
handle_key_blob_data                              ./source/bootloader/src/bl_command.o
handle_read_memory                                ./source/bootloader/src/bl_command.o
handle_receive_sb_file                            ./source/bootloader/src/bl_command.o
handle_reliable_update                            ./source/bootloader/src/bl_command.o
handle_reset                                      ./source/bootloader/src/bl_command.o
handle_set_property                               ./source/bootloader/src/bl_command.o
handle_write_memory                               ./source/bootloader/src/bl_command.o
image_vector_table                                ./MIMXRT1062/hardware_init_MIMXRT1062.o
init_crc_check_status                             ./source/bootloader/src/bl_app_crc_check.o
init_data_bss                                     ./startup/startup.o
                                                  ./startup/crt0_gcc.o
init_hardware                                     ./MIMXRT1062/hardware_init_MIMXRT1062.o
                                                  ./source/bootloader/src/bl_main.o
init_interrupts                                   ./startup/startup.o
                                                  ./source/bootloader/src/bl_shutdown_cleanup.o
                                                  ./startup/crt0_gcc.o
instance_transition_callback                      ./source/autobaud/autobaud_irq.o
is_application_crc_check_pass                     ./source/bootloader/src/bl_app_crc_check.o
is_boot_pin_asserted                              ./MIMXRT1062/hardware_init_MIMXRT1062.o
                                                  ./source/bootloader/src/bl_main.o
is_flexspi_nor_configured                         ./source/memory/src/flexspi_nor_memory.o
                                                  ./source/bootloader/src/bl_misc.o
is_flexspi_nor_present                            ./source/bootloader/src/bl_misc.o
                                                  ./source/bootloader/src/bl_app_crc_check.o
is_in_execute_only_region                         ./source/bootloader/src/bl_misc.o
is_ltc_present                                    ./source/bootloader/src/bl_misc.o
is_otfad_present                                  ./source/bootloader/src/bl_misc.o
is_qspi_present                                   ./source/bootloader/src/bl_misc.o
is_semc_nor_present                               ./source/bootloader/src/bl_misc.o
is_valid_application_location                     ./source/bootloader/src/bl_main.o
                                                  ./source/bootloader/src/bl_keyblob.o
                                                  ./source/bootloader/src/bl_command.o
                                                  ./source/memory/src/flexspi_nor_memory.o
                                                  ./source/sbloader/src/sbloader.o
is_valid_stackpointer_location                    ./source/bootloader/src/bl_main.o
                                                  ./source/bootloader/src/bl_command.o
k_PingResponse                                    ./source/packet/src/serial_packet.o
k_boot_meta                                       ./source/bootloader/src/bl_reliable_update_common.o
keyblob_get                                       ./source/bootloader/src/bl_keyblob.o
keyblob_update                                    ./source/bootloader/src/bl_keyblob.o
ldr_DoCallCmd                                     ./source/sbloader/src/sbloader.o
ldr_DoCommand                                     ./source/sbloader/src/sbloader.o
ldr_DoEraseCmd                                    ./source/sbloader/src/sbloader.o
ldr_DoFillCmd                                     ./source/sbloader/src/sbloader.o
ldr_DoGetDek                                      ./source/sbloader/src/sbloader.o
ldr_DoHeader                                      ./source/sbloader/src/sbloader.o
ldr_DoHeader1                                     ./source/sbloader/src/sbloader.o
ldr_DoHeader2                                     ./source/sbloader/src/sbloader.o
ldr_DoHeaderMac                                   ./source/sbloader/src/sbloader.o
ldr_DoJumpCmd                                     ./source/sbloader/src/sbloader.o
ldr_DoKeyTest                                     ./source/sbloader/src/sbloader.o
ldr_DoLoadBytes                                   ./source/sbloader/src/sbloader.o
ldr_DoLoadChunks                                  ./source/sbloader/src/sbloader.o
ldr_DoLoadCmd                                     ./source/sbloader/src/sbloader.o
ldr_DoMemEnableCmd                                ./source/sbloader/src/sbloader.o
ldr_DoProgramCmd                                  ./source/sbloader/src/sbloader.o
ldr_DoResetCmd                                    ./source/sbloader/src/sbloader.o
ldr_DoTagCmd                                      ./source/sbloader/src/sbloader.o
ldr_GoToNextSection                               ./source/sbloader/src/sbloader.o
load_boot_meta                                    ./source/bootloader/src/bl_reliable_update_common.o
                                                  ./MIMXRT1062/hardware_init_MIMXRT1062.o
load_swap_meta                                    ./source/bootloader/src/bl_reliable_update_common.o
                                                  ./MIMXRT1062/hardware_init_MIMXRT1062.o
lock_acquire                                      ./source/utilities/src/fsl_rtos_abstraction.o
                                                  ./source/bootloader/src/usb_hid_msc_peripheral_interface.o
                                                  ./source/bootloader/src/bl_shutdown_cleanup.o
                                                  ./source/bootloader/src/bl_command.o
                                                  ./source/memory/src/flexspi_nor_memory.o
lock_init                                         ./source/utilities/src/fsl_rtos_abstraction.o
                                                  ./source/bootloader/src/bl_main.o
lock_release                                      ./source/utilities/src/fsl_rtos_abstraction.o
                                                  ./source/bootloader/src/usb_hid_msc_peripheral_interface.o
                                                  ./source/bootloader/src/bl_command.o
                                                  ./source/memory/src/flexspi_nor_memory.o
main                                              ./source/bootloader/src/bl_main.o
                                                  ./startup/startup_MIMXRT1062.o
                                                  ./startup/crt0_gcc.o
main_task                                         ./component/osa/fsl_os_abstraction_bm.o
malloc                                            c:/nxp/mcuxpressoide_11.2.0_4120/ide/plugins/com.nxp.mcuxpresso.tools.win32_11.2.0.202001021529/tools/bin/../lib/gcc/arm-none-eabi/9.2.1/../../../../arm-none-eabi/lib/thumb/v7e-m+dp/hard\libc_nano.a(lib_a-malloc.o)
                                                  ./component/osa/fsl_os_abstraction_bm.o
                                                  ./drivers/fsl_common.o
mem_erase                                         ./source/memory/src/memory.o
                                                  ./source/bootloader/src/bl_reliable_update_common.o
mem_fill                                          ./source/memory/src/memory.o
mem_finalize                                      ./source/memory/src/memory.o
mem_flush                                         ./source/memory/src/memory.o
                                                  ./source/bootloader/src/bl_reliable_update_common.o
mem_init                                          ./source/memory/src/memory.o
mem_is_block_reserved                             ./source/memory/src/memory.o
mem_is_erased                                     ./source/memory/src/memory.o
mem_read                                          ./source/memory/src/memory.o
mem_write                                         ./source/memory/src/memory.o
                                                  ./source/bootloader/src/bl_reliable_update_common.o
memcmp                                            c:/nxp/mcuxpressoide_11.2.0_4120/ide/plugins/com.nxp.mcuxpresso.tools.win32_11.2.0.202001021529/tools/bin/../lib/gcc/arm-none-eabi/9.2.1/../../../../arm-none-eabi/lib/thumb/v7e-m+dp/hard\libc_nano.a(lib_a-memcmp.o)
                                                  ./source/drivers/dcp/bl_dcp.o
                                                  ./source/drivers/semc_nand/semc_nand_flash.o
                                                  ./source/memory/src/flexspi_nor_memory.o
                                                  ./source/sbloader/src/sbloader.o
memcpy                                            c:/nxp/mcuxpressoide_11.2.0_4120/ide/plugins/com.nxp.mcuxpresso.tools.win32_11.2.0.202001021529/tools/bin/../lib/gcc/arm-none-eabi/9.2.1/../../../../arm-none-eabi/lib/thumb/v7e-m+dp/hard\libc_nano.a(lib_a-memcpy-stub.o)
                                                  ./MIMXRT1062/hardware_init_MIMXRT1062.o
                                                  ./MIMXRT1062/flexspi_nor_config_MIMXRT1062.o
                                                  ./MIMXRT1062/flexspi_nand_config_MIMXRT1062.o
                                                  ./source/bootloader/src/usb_hid_msc_peripheral_interface.o
                                                  ./source/bootloader/src/bl_reliable_update_common.o
                                                  ./source/bootloader/src/bl_nor_encrypt_bee.o
                                                  ./source/bootloader/src/bl_keyblob.o
                                                  ./source/bootloader/src/bl_command.o
                                                  ./source/drivers/dcp/bl_dcp.o
                                                  ./source/drivers/flexspi_nand/flexspi_nand_flash.o
                                                  ./source/drivers/flexspi_nor/flexspi_nor_flash.o
                                                  ./source/drivers/sdmmc/bl_sd.o
                                                  ./source/drivers/sdmmc/bl_mmc.o
                                                  ./source/drivers/semc/bl_semc.o
                                                  ./source/drivers/semc_nand/semc_nand_flash.o
                                                  ./source/drivers/serial_nor_eeprom/serial_nor_eeprom.o
                                                  ./source/memory/src/normal_memory.o
                                                  ./source/memory/src/flexspi_nor_memory.o
                                                  ./source/packet/src/serial_packet.o
                                                  ./source/property/src/property_imx.o
memset                                            c:/nxp/mcuxpressoide_11.2.0_4120/ide/plugins/com.nxp.mcuxpresso.tools.win32_11.2.0.202001021529/tools/bin/../lib/gcc/arm-none-eabi/9.2.1/../../../../arm-none-eabi/lib/thumb/v7e-m+dp/hard\libc_nano.a(lib_a-memset.o)
                                                  ./MIMXRT1062/semc_nor_config_MIMXRT1062.o
                                                  ./MIMXRT1062/semc_nand_config_MIMXRT1062.o
                                                  ./MIMXRT1062/hardware_init_MIMXRT1062.o
                                                  ./MIMXRT1062/flexspi_nor_config_MIMXRT1062.o
                                                  ./MIMXRT1062/flexspi_nand_config_MIMXRT1062.o
                                                  ./component/osa/fsl_os_abstraction_bm.o
                                                  ./drivers/fsl_lpuart.o
                                                  ./drivers/fsl_lpspi.o
                                                  ./source/bootloader/src/usb_hid_msc_peripheral_interface.o
                                                  ./source/bootloader/src/bl_reliable_update_common.o
                                                  ./source/bootloader/src/bl_nor_encrypt_bee.o
                                                  ./source/bootloader/src/bl_keyblob_dcp.o
                                                  ./source/bootloader/src/bl_keyblob.o
                                                  ./source/bootloader/src/bl_command.o
                                                  ./source/drivers/dcp/bl_dcp.o
                                                  ./source/drivers/flexspi_nand/flexspi_nand_flash.o
                                                  ./source/drivers/flexspi_nor/flexspi_nor_flash.o
                                                  ./source/drivers/nand_ecc/nand_ecc.o
                                                  ./source/drivers/sdmmc/bl_sdmmc.o
                                                  ./source/drivers/sdmmc/bl_sd.o
                                                  ./source/drivers/sdmmc/bl_mmc.o
                                                  ./source/drivers/sdmmc/bl_host.o
                                                  ./source/drivers/semc_nand/semc_nand_flash.o
                                                  ./source/drivers/serial_nor_eeprom/serial_nor_eeprom.o
                                                  ./source/drivers/usdhc/bl_usdhc.o
                                                  ./source/memory/src/flexspi_nor_memory.o
                                                  ./source/packet/src/serial_packet.o
                                                  ./source/property/src/property_imx.o
                                                  ./source/sbloader/src/sbloader.o
microseconds_convert_to_microseconds              ./source/drivers/microseconds/microseconds_pit.o
microseconds_convert_to_ticks                     ./source/drivers/microseconds/microseconds_pit.o
                                                  ./source/autobaud/autobaud_irq.o
                                                  ./source/bootloader/src/bl_main.o
                                                  ./source/drivers/ocotp/bl_ocotp.o
                                                  ./source/drivers/sdmmc/bl_sd.o
                                                  ./source/drivers/sdmmc/bl_mmc.o
                                                  ./source/drivers/semc_nand/semc_nand_flash.o
                                                  ./source/drivers/semc_nor/semc_nor_flash.o
                                                  ./source/packet/src/serial_packet.o
microseconds_delay                                ./source/drivers/microseconds/microseconds_pit.o
                                                  ./MIMXRT1062/bl_clock_config_MIMXRT1062.o
                                                  ./source/drivers/sdmmc/bl_sdmmc.o
                                                  ./source/drivers/sdmmc/bl_sd.o
                                                  ./source/drivers/sdmmc/bl_mmc.o
                                                  ./source/drivers/sdmmc/bl_host.o
                                                  ./source/drivers/semc_nand/semc_nand_flash.o
microseconds_get_clock                            ./MIMXRT1062/bl_clock_config_MIMXRT1062.o
                                                  ./source/drivers/microseconds/microseconds_pit.o
                                                  ./source/autobaud/autobaud_irq.o
microseconds_get_ticks                            ./source/drivers/microseconds/microseconds_pit.o
                                                  ./source/autobaud/autobaud_irq.o
                                                  ./source/bootloader/src/bl_main.o
                                                  ./source/drivers/ocotp/bl_ocotp.o
                                                  ./source/drivers/sdmmc/bl_sd.o
                                                  ./source/drivers/sdmmc/bl_mmc.o
                                                  ./source/drivers/semc_nand/semc_nand_flash.o
                                                  ./source/drivers/semc_nor/semc_nor_flash.o
                                                  ./source/packet/src/serial_packet.o
microseconds_init                                 ./source/drivers/microseconds/microseconds_pit.o
                                                  ./source/bootloader/src/bl_main.o
microseconds_set_delay                            ./source/drivers/microseconds/microseconds_pit.o
                                                  ./source/drivers/sdmmc/bl_host.o
microseconds_shutdown                             ./source/drivers/microseconds/microseconds_pit.o
                                                  ./source/bootloader/src/bl_shutdown_cleanup.o
microseconds_timeout                              ./source/drivers/microseconds/microseconds_pit.o
                                                  ./source/drivers/sdmmc/bl_host.o
nand_ecc_count_bit1                               ./source/drivers/nand_ecc/nand_ecc.o
nand_ecc_sec_calculate_encode                     ./source/drivers/nand_ecc/nand_ecc.o
                                                  ./source/drivers/semc_nand/semc_nand_flash.o
nand_ecc_sec_verify_correct                       ./source/drivers/nand_ecc/nand_ecc.o
                                                  ./source/drivers/semc_nand/semc_nand_flash.o
normal_mem_fill                                   ./source/memory/src/normal_memory.o
normal_mem_init                                   ./MIMXRT1062/hardware_init_MIMXRT1062.o
                                                  ./source/memory/src/normal_memory.o
normal_mem_read                                   ./source/memory/src/normal_memory.o
normal_mem_write                                  ./source/memory/src/normal_memory.o
ocotp_init                                        ./source/drivers/ocotp/bl_ocotp.o
ocotp_program_once                                ./source/drivers/ocotp/bl_ocotp.o
                                                  ./source/bootloader/src/bl_command.o
                                                  ./source/sbloader/src/sbloader.o
ocotp_read_once                                   ./source/drivers/ocotp/bl_ocotp.o
                                                  ./source/bootloader/src/bl_command.o
osaCurrentSr                                      ./source/utilities/src/fsl_rtos_abstraction.o
pattern_fill                                      ./source/memory/src/pattern_fill_gcc.o
                                                  ./source/memory/src/normal_memory.o
qspi_need_configure                               ./source/bootloader/src/bl_misc.o
qspiflash_config                                  ./MIMXRT1062/hardware_init_MIMXRT1062.o
run_swap_routine                                  ./source/bootloader/src/bl_reliable_update_common.o
s_nandAcTimingParameterTable                      ./source/drivers/semc_nand/semc_nand_flash.o
s_nandDeviceManufacturerList                      ./source/drivers/semc_nand/semc_nand_flash.o
s_norAcTimingParameterTable                       ./source/drivers/semc_nor/semc_nor_flash.o
s_semcAxiQueueWeightConfig                        ./source/drivers/semc/bl_semc.o
s_tickPerMicrosecondMul8                          ./source/drivers/microseconds/microseconds_pit.o
s_timeoutTicks                                    ./source/drivers/microseconds/microseconds_pit.o
sbloader_finalize                                 ./source/sbloader/src/sbloader.o
                                                  ./source/bootloader/src/bl_command.o
sbloader_handle_chunk                             ./source/sbloader/src/sbloader.o
sbloader_init                                     ./source/sbloader/src/sbloader.o
                                                  ./source/bootloader/src/bl_command.o
sbloader_pump                                     ./source/sbloader/src/sbloader.o
                                                  ./source/bootloader/src/bl_command.o
semc_axi_memory_read                              ./source/drivers/semc/bl_semc.o
                                                  ./source/drivers/semc_nand/semc_nand_flash.o
semc_axi_memory_write                             ./source/drivers/semc/bl_semc.o
                                                  ./source/drivers/semc_nand/semc_nand_flash.o
semc_ipg_command_convert_nand_address             ./source/drivers/semc/bl_semc.o
                                                  ./source/drivers/semc_nand/semc_nand_flash.o
semc_ipg_command_convert_nor_address              ./source/drivers/semc/bl_semc.o
                                                  ./source/drivers/semc_nor/semc_nor_flash.o
semc_ipg_command_device_read                      ./source/drivers/semc/bl_semc.o
                                                  ./source/drivers/semc_nor/semc_nor_flash.o
semc_ipg_command_device_write                     ./source/drivers/semc/bl_semc.o
                                                  ./source/drivers/semc_nor/semc_nor_flash.o
semc_ipg_command_get_data_size                    ./source/drivers/semc/bl_semc.o
                                                  ./source/drivers/semc_nor/semc_nor_flash.o
semc_ipg_command_get_nand_code                    ./source/drivers/semc/bl_semc.o
                                                  ./source/drivers/semc_nand/semc_nand_flash.o
semc_ipg_command_nand_access                      ./source/drivers/semc/bl_semc.o
                                                  ./source/drivers/semc_nand/semc_nand_flash.o
semc_ipg_command_set_data_size                    ./source/drivers/semc/bl_semc.o
                                                  ./source/drivers/semc_nor/semc_nor_flash.o
semc_ipg_memory_read                              ./source/drivers/semc/bl_semc.o
                                                  ./source/drivers/semc_nand/semc_nand_flash.o
semc_ipg_memory_write                             ./source/drivers/semc/bl_semc.o
                                                  ./source/drivers/semc_nand/semc_nand_flash.o
semc_is_nand_ready                                ./source/drivers/semc/bl_semc.o
                                                  ./source/drivers/semc_nand/semc_nand_flash.o
semc_nand_flash_erase_block                       ./source/drivers/semc_nand/semc_nand_flash.o
semc_nand_flash_page_program                      ./source/drivers/semc_nand/semc_nand_flash.o
semc_nand_flash_read_page                         ./source/drivers/semc_nand/semc_nand_flash.o
semc_nand_flash_verify_erase                      ./source/drivers/semc_nand/semc_nand_flash.o
semc_nand_flash_verify_page_program               ./source/drivers/semc_nand/semc_nand_flash.o
semc_nand_get_config_data_from_fuse               ./MIMXRT1062/semc_nand_config_MIMXRT1062.o
semc_nand_get_default_config_block                ./MIMXRT1062/semc_nand_config_MIMXRT1062.o
semc_nand_get_fcb_search_cfg                      ./MIMXRT1062/semc_nand_config_MIMXRT1062.o
semc_nor_flash_erase_block                        ./source/drivers/semc_nor/semc_nor_flash.o
semc_nor_flash_page_program                       ./source/drivers/semc_nor/semc_nor_flash.o
semc_nor_flash_verify_erase                       ./source/drivers/semc_nor/semc_nor_flash.o
semc_nor_flash_verify_program                     ./source/drivers/semc_nor/semc_nor_flash.o
semc_nor_get_config_data_from_fuse                ./MIMXRT1062/semc_nor_config_MIMXRT1062.o
semc_nor_get_default_config_block                 ./MIMXRT1062/semc_nor_config_MIMXRT1062.o
semc_nor_get_specific_ac_cycles                   ./source/drivers/semc_nor/semc_nor_flash.o
semc_wait_for_idle                                ./source/drivers/semc/bl_semc.o
send_flash_read_once_response                     ./source/bootloader/src/bl_command.o
send_flash_read_resource_response                 ./source/bootloader/src/bl_command.o
send_generate_key_blob_response                   ./source/bootloader/src/bl_command.o
send_generic_response                             ./source/bootloader/src/bl_command.o
send_get_property_response                        ./source/bootloader/src/bl_command.o
send_read_memory_response                         ./source/bootloader/src/bl_command.o
serial_nor_eeprom_erase                           ./source/drivers/serial_nor_eeprom/serial_nor_eeprom.o
serial_nor_eeprom_erase_all                       ./source/drivers/serial_nor_eeprom/serial_nor_eeprom.o
serial_nor_eeprom_init                            ./source/drivers/serial_nor_eeprom/serial_nor_eeprom.o
serial_nor_eeprom_read                            ./source/drivers/serial_nor_eeprom/serial_nor_eeprom.o
serial_nor_eeprom_write                           ./source/drivers/serial_nor_eeprom/serial_nor_eeprom.o
serial_packet_abort                               ./source/packet/src/serial_packet.o
serial_packet_finalize                            ./source/packet/src/serial_packet.o
serial_packet_get_max_packet_size                 ./source/packet/src/serial_packet.o
serial_packet_init                                ./source/packet/src/serial_packet.o
serial_packet_queue_byte                          ./source/packet/src/serial_packet.o
serial_packet_read                                ./source/packet/src/serial_packet.o
serial_packet_send_sync                           ./source/packet/src/serial_packet.o
serial_packet_write                               ./source/packet/src/serial_packet.o
serial_send_ping_response                         ./source/packet/src/serial_packet.o
show_boot_meta_info                               ./source/bootloader/src/bl_reliable_update_common.o
show_swap_meta_info                               ./source/bootloader/src/bl_reliable_update_common.o
shutdown_cleanup                                  ./source/bootloader/src/bl_shutdown_cleanup.o
                                                  ./source/bootloader/src/bl_main.o
                                                  ./source/bootloader/src/bl_command.o
                                                  ./source/sbloader/src/sbloader.o
sram_init                                         ./source/memory/src/sram_init_MIMXRT1062.o
                                                  ./source/memory/src/normal_memory.o
swap_meta_check                                   ./source/bootloader/src/bl_reliable_update_common.o
                                                  ./MIMXRT1062/hardware_init_MIMXRT1062.o
sync_init                                         ./source/utilities/src/fsl_rtos_abstraction.o
                                                  ./source/bootloader/src/usb_hid_msc_peripheral_interface.o
                                                  ./source/usb/bm_composite/hid_bootloader.o
sync_reset                                        ./source/utilities/src/fsl_rtos_abstraction.o
sync_signal                                       ./source/utilities/src/fsl_rtos_abstraction.o
                                                  ./source/bootloader/src/usb_hid_msc_peripheral_interface.o
                                                  ./source/usb/bm_composite/hid_bootloader.o
sync_wait                                         ./source/utilities/src/fsl_rtos_abstraction.o
                                                  ./source/bootloader/src/usb_hid_msc_peripheral_interface.o
target_load_bootloader_config_area                ./MIMXRT1062/hardware_init_MIMXRT1062.o
                                                  ./source/property/src/property_imx.o
uart_pinmux_config                                ./MIMXRT1062/pinmux_utility_imxrt_series.o
update_available_peripherals                      ./MIMXRT1062/hardware_init_MIMXRT1062.o
                                                  ./source/property/src/property_imx.o
update_boot_meta                                  ./source/bootloader/src/bl_reliable_update_common.o
update_default_swap_meta                          ./source/bootloader/src/bl_reliable_update_common.o
update_image_state                                ./MIMXRT1062/hardware_init_MIMXRT1062.o
update_image_state_user_api                       ./MIMXRT1062/hardware_init_MIMXRT1062.o
update_partition_table_user_api                   ./MIMXRT1062/hardware_init_MIMXRT1062.o
update_swap_meta                                  ./source/bootloader/src/bl_reliable_update_common.o
usb_clock_init                                    ./MIMXRT1062/bl_clock_config_MIMXRT1062.o
                                                  ./source/bootloader/src/usb_hid_msc_peripheral_interface.o
usb_device_callback                               ./source/bootloader/src/usb_hid_msc_peripheral_interface.o
                                                  ./source/usb/bm_composite/composite.o
usb_device_get_configuration_descriptor           ./source/usb/bm_composite/usb_descriptor.o
                                                  ./source/bootloader/src/usb_hid_msc_peripheral_interface.o
usb_device_get_device_descriptor                  ./source/usb/bm_composite/usb_descriptor.o
                                                  ./source/bootloader/src/usb_hid_msc_peripheral_interface.o
usb_device_get_hid_descriptor                     ./source/usb/bm_composite/usb_descriptor.o
                                                  ./source/bootloader/src/usb_hid_msc_peripheral_interface.o
usb_device_get_hid_physical_descriptor            ./source/usb/bm_composite/usb_descriptor.o
                                                  ./source/bootloader/src/usb_hid_msc_peripheral_interface.o
usb_device_get_hid_report_descriptor              ./source/usb/bm_composite/usb_descriptor.o
                                                  ./source/bootloader/src/usb_hid_msc_peripheral_interface.o
usb_device_get_string_descriptor                  ./source/usb/bm_composite/usb_descriptor.o
                                                  ./source/bootloader/src/usb_hid_msc_peripheral_interface.o
usb_device_hid_generic_callback                   ./source/usb/bm_composite/hid_bootloader.o
                                                  ./source/usb/bm_composite/composite.o
usb_device_hid_generic_deinit                     ./source/usb/bm_composite/hid_bootloader.o
                                                  ./source/bootloader/src/usb_hid_msc_peripheral_interface.o
usb_device_hid_generic_init                       ./source/usb/bm_composite/hid_bootloader.o
                                                  ./source/bootloader/src/usb_hid_msc_peripheral_interface.o
usb_device_hid_generic_set_configure              ./source/usb/bm_composite/hid_bootloader.o
                                                  ./source/bootloader/src/usb_hid_msc_peripheral_interface.o
usb_device_hid_generic_set_interface              ./source/usb/bm_composite/hid_bootloader.o
                                                  ./source/bootloader/src/usb_hid_msc_peripheral_interface.o
usb_device_set_speed                              ./source/usb/bm_composite/usb_descriptor.o
                                                  ./source/bootloader/src/usb_hid_msc_peripheral_interface.o
